

Microchip MPLAB XC8 Assembler V2.32 build 20210201212658 
                                                                                               Wed Dec 29 16:45:31 2021

Microchip MPLAB XC8 C Compiler v2.32 (Free license) build 20210201212658 Og1 
     1                           	processor	16F18855
     2                           	pagewidth 120
     3                           	opt	flic
     4                           	psect	stringtext1,global,class=STRCODE,delta=2,noexec
     5                           	psect	stringtext2,global,class=STRCODE,delta=2,noexec
     6                           	psect	cinit,global,class=CODE,merge=1,delta=2
     7                           	psect	cstackCOMMON,global,class=COMMON,space=1,delta=1,noexec
     8                           	psect	maintext,global,class=CODE,merge=1,split=1,delta=2
     9                           	psect	text1,local,class=CODE,merge=1,delta=2
    10                           	psect	text2,local,class=CODE,merge=1,delta=2
    11                           	psect	text3,local,class=CODE,merge=1,delta=2
    12                           	psect	text4,local,class=CODE,merge=1,delta=2
    13                           	psect	text5,local,class=CODE,merge=1,delta=2
    14                           	psect	text6,local,class=CODE,merge=1,delta=2
    15                           	psect	text7,local,class=CODE,merge=1,delta=2
    16                           	psect	text8,local,class=CODE,merge=1,delta=2
    17                           	psect	text9,local,class=CODE,merge=1,delta=2
    18                           	psect	text10,local,class=CODE,merge=1,delta=2
    19                           	psect	text11,local,class=CODE,merge=1,delta=2
    20                           	psect	config,global,abs,ovrld,class=CONFIG,space=4,delta=2,noexec
    21                           	dabs	1,0x7E,2
    22  0000                     
    23                           ; Version 2.30
    24                           ; Generated 15/09/2020 GMT
    25                           ; 
    26                           ; Copyright © 2020, Microchip Technology Inc. and its subsidiaries ("Microchip")
    27                           ; All rights reserved.
    28                           ; 
    29                           ; This software is developed by Microchip Technology Inc. and its subsidiaries ("Microch
      +                          ip").
    30                           ; 
    31                           ; Redistribution and use in source and binary forms, with or without modification, are
    32                           ; permitted provided that the following conditions are met:
    33                           ; 
    34                           ;     1. Redistributions of source code must retain the above copyright notice, this lis
      +                          t of
    35                           ;        conditions and the following disclaimer.
    36                           ; 
    37                           ;     2. Redistributions in binary form must reproduce the above copyright notice, this 
      +                          list
    38                           ;        of conditions and the following disclaimer in the documentation and/or other
    39                           ;        materials provided with the distribution. Publication is not required when
    40                           ;        this file is used in an embedded application.
    41                           ; 
    42                           ;     3. Microchip's name may not be used to endorse or promote products derived from th
      +                          is
    43                           ;        software without specific prior written permission.
    44                           ; 
    45                           ; THIS SOFTWARE IS PROVIDED BY MICROCHIP "AS IS" AND ANY EXPRESS OR IMPLIED WARRANTIES,
    46                           ; INCLUDING, BUT NOT LIMITED TO, THE IMPLIED WARRANTIES OF MERCHANTABILITY AND FITNESS F
      +                          OR
    47                           ; PURPOSE ARE DISCLAIMED.  IN NO EVENT SHALL MICROCHIP BE LIABLE FOR ANY DIRECT, INDIREC
      +                          T,
    48                           ; INCIDENTAL, SPECIAL, EXEMPLARY, OR CONSEQUENTIAL DAMAGES (INCLUDING BUT NOT LIMITED TO
    49                           ; PROCUREMENT OF SUBSTITUTE GOODS OR SERVICES; LOSS OF USE, DATA OR PROFITS; OR BUSINESS
    50                           ; INTERRUPTION) HOWSOEVER CAUSED AND ON ANY THEORY OF LIABILITY, WHETHER IN CONTRACT, ST
      +                          RICT
    51                           ; LIABILITY, OR TORT (INCLUDING NEGLIGENCE OR OTHERWISE) ARISING IN ANY WAY OUT OF THE U
      +                          SE OF
    52                           ; THIS SOFTWARE, EVEN IF ADVISED OF THE POSSIBILITY OF SUCH DAMAGE.
    53                           ; 
    54                           ; 
    55                           ; Code-generator required, PIC16F18855 Definitions
    56                           ; 
    57                           ; SFR Addresses
    58  0000                     	;# 
    59  0001                     	;# 
    60  0002                     	;# 
    61  0003                     	;# 
    62  0004                     	;# 
    63  0005                     	;# 
    64  0006                     	;# 
    65  0007                     	;# 
    66  0008                     	;# 
    67  0009                     	;# 
    68  000A                     	;# 
    69  000B                     	;# 
    70  000C                     	;# 
    71  000D                     	;# 
    72  000E                     	;# 
    73  0010                     	;# 
    74  0011                     	;# 
    75  0012                     	;# 
    76  0013                     	;# 
    77  0016                     	;# 
    78  0017                     	;# 
    79  0018                     	;# 
    80  001C                     	;# 
    81  001C                     	;# 
    82  001D                     	;# 
    83  001D                     	;# 
    84  001E                     	;# 
    85  001F                     	;# 
    86  008C                     	;# 
    87  008C                     	;# 
    88  008D                     	;# 
    89  008E                     	;# 
    90  008E                     	;# 
    91  008F                     	;# 
    92  0090                     	;# 
    93  0090                     	;# 
    94  0091                     	;# 
    95  0093                     	;# 
    96  0094                     	;# 
    97  0095                     	;# 
    98  0096                     	;# 
    99  0097                     	;# 
   100  0098                     	;# 
   101  0099                     	;# 
   102  009A                     	;# 
   103  009B                     	;# 
   104  009C                     	;# 
   105  009D                     	;# 
   106  009E                     	;# 
   107  010C                     	;# 
   108  010D                     	;# 
   109  010E                     	;# 
   110  010E                     	;# 
   111  010F                     	;# 
   112  0110                     	;# 
   113  0110                     	;# 
   114  0111                     	;# 
   115  0112                     	;# 
   116  0112                     	;# 
   117  0113                     	;# 
   118  0114                     	;# 
   119  0114                     	;# 
   120  0115                     	;# 
   121  0116                     	;# 
   122  0116                     	;# 
   123  0117                     	;# 
   124  0119                     	;# 
   125  0119                     	;# 
   126  0119                     	;# 
   127  011A                     	;# 
   128  011A                     	;# 
   129  011A                     	;# 
   130  011B                     	;# 
   131  011B                     	;# 
   132  011B                     	;# 
   133  011B                     	;# 
   134  011B                     	;# 
   135  011C                     	;# 
   136  011C                     	;# 
   137  011C                     	;# 
   138  011D                     	;# 
   139  011D                     	;# 
   140  011D                     	;# 
   141  011E                     	;# 
   142  011E                     	;# 
   143  011E                     	;# 
   144  011F                     	;# 
   145  011F                     	;# 
   146  011F                     	;# 
   147  011F                     	;# 
   148  011F                     	;# 
   149  018C                     	;# 
   150  018D                     	;# 
   151  018E                     	;# 
   152  018F                     	;# 
   153  0190                     	;# 
   154  0191                     	;# 
   155  0192                     	;# 
   156  0196                     	;# 
   157  0197                     	;# 
   158  0198                     	;# 
   159  0199                     	;# 
   160  019A                     	;# 
   161  019B                     	;# 
   162  019C                     	;# 
   163  020C                     	;# 
   164  020C                     	;# 
   165  020D                     	;# 
   166  020E                     	;# 
   167  020F                     	;# 
   168  020F                     	;# 
   169  0210                     	;# 
   170  0210                     	;# 
   171  0211                     	;# 
   172  0211                     	;# 
   173  0212                     	;# 
   174  0212                     	;# 
   175  0213                     	;# 
   176  0214                     	;# 
   177  0215                     	;# 
   178  0215                     	;# 
   179  0216                     	;# 
   180  0216                     	;# 
   181  0217                     	;# 
   182  0217                     	;# 
   183  0218                     	;# 
   184  0218                     	;# 
   185  0219                     	;# 
   186  021A                     	;# 
   187  021B                     	;# 
   188  021B                     	;# 
   189  021C                     	;# 
   190  021C                     	;# 
   191  021D                     	;# 
   192  021D                     	;# 
   193  021E                     	;# 
   194  021F                     	;# 
   195  028C                     	;# 
   196  028C                     	;# 
   197  028D                     	;# 
   198  028D                     	;# 
   199  028E                     	;# 
   200  028F                     	;# 
   201  0290                     	;# 
   202  0290                     	;# 
   203  0291                     	;# 
   204  0292                     	;# 
   205  0292                     	;# 
   206  0293                     	;# 
   207  0293                     	;# 
   208  0294                     	;# 
   209  0295                     	;# 
   210  0296                     	;# 
   211  0296                     	;# 
   212  0297                     	;# 
   213  0298                     	;# 
   214  0298                     	;# 
   215  0299                     	;# 
   216  0299                     	;# 
   217  029A                     	;# 
   218  029B                     	;# 
   219  029C                     	;# 
   220  029C                     	;# 
   221  029D                     	;# 
   222  030C                     	;# 
   223  030C                     	;# 
   224  030D                     	;# 
   225  030E                     	;# 
   226  030F                     	;# 
   227  0310                     	;# 
   228  0310                     	;# 
   229  0311                     	;# 
   230  0312                     	;# 
   231  0313                     	;# 
   232  0314                     	;# 
   233  0314                     	;# 
   234  0315                     	;# 
   235  0316                     	;# 
   236  0317                     	;# 
   237  0318                     	;# 
   238  0318                     	;# 
   239  0319                     	;# 
   240  031A                     	;# 
   241  031B                     	;# 
   242  031C                     	;# 
   243  031C                     	;# 
   244  031D                     	;# 
   245  031E                     	;# 
   246  031F                     	;# 
   247  038C                     	;# 
   248  038C                     	;# 
   249  038D                     	;# 
   250  038E                     	;# 
   251  0390                     	;# 
   252  0390                     	;# 
   253  0391                     	;# 
   254  0392                     	;# 
   255  040C                     	;# 
   256  040D                     	;# 
   257  040E                     	;# 
   258  040F                     	;# 
   259  0410                     	;# 
   260  0411                     	;# 
   261  0416                     	;# 
   262  0416                     	;# 
   263  0417                     	;# 
   264  0418                     	;# 
   265  0418                     	;# 
   266  0419                     	;# 
   267  041A                     	;# 
   268  041A                     	;# 
   269  041B                     	;# 
   270  041C                     	;# 
   271  041C                     	;# 
   272  041D                     	;# 
   273  041E                     	;# 
   274  041F                     	;# 
   275  048C                     	;# 
   276  048C                     	;# 
   277  048D                     	;# 
   278  048E                     	;# 
   279  048F                     	;# 
   280  048F                     	;# 
   281  0490                     	;# 
   282  0491                     	;# 
   283  0492                     	;# 
   284  0492                     	;# 
   285  0493                     	;# 
   286  0494                     	;# 
   287  0495                     	;# 
   288  0495                     	;# 
   289  0496                     	;# 
   290  0497                     	;# 
   291  0498                     	;# 
   292  0499                     	;# 
   293  049A                     	;# 
   294  049B                     	;# 
   295  049C                     	;# 
   296  049D                     	;# 
   297  050C                     	;# 
   298  050C                     	;# 
   299  050D                     	;# 
   300  050E                     	;# 
   301  050F                     	;# 
   302  050F                     	;# 
   303  0510                     	;# 
   304  0511                     	;# 
   305  0512                     	;# 
   306  0512                     	;# 
   307  0513                     	;# 
   308  0514                     	;# 
   309  0515                     	;# 
   310  0515                     	;# 
   311  0516                     	;# 
   312  0517                     	;# 
   313  0518                     	;# 
   314  0519                     	;# 
   315  051A                     	;# 
   316  051B                     	;# 
   317  051C                     	;# 
   318  051D                     	;# 
   319  058C                     	;# 
   320  058C                     	;# 
   321  058D                     	;# 
   322  058E                     	;# 
   323  058F                     	;# 
   324  058F                     	;# 
   325  0590                     	;# 
   326  0591                     	;# 
   327  0592                     	;# 
   328  0593                     	;# 
   329  060C                     	;# 
   330  060D                     	;# 
   331  060E                     	;# 
   332  060F                     	;# 
   333  0610                     	;# 
   334  0611                     	;# 
   335  0612                     	;# 
   336  0613                     	;# 
   337  0614                     	;# 
   338  0616                     	;# 
   339  0617                     	;# 
   340  0618                     	;# 
   341  0619                     	;# 
   342  061A                     	;# 
   343  061B                     	;# 
   344  061C                     	;# 
   345  061D                     	;# 
   346  061E                     	;# 
   347  068C                     	;# 
   348  068D                     	;# 
   349  068E                     	;# 
   350  068F                     	;# 
   351  0690                     	;# 
   352  0691                     	;# 
   353  0692                     	;# 
   354  0693                     	;# 
   355  0694                     	;# 
   356  070C                     	;# 
   357  070D                     	;# 
   358  070E                     	;# 
   359  070F                     	;# 
   360  0710                     	;# 
   361  0711                     	;# 
   362  0712                     	;# 
   363  0713                     	;# 
   364  0714                     	;# 
   365  0716                     	;# 
   366  0717                     	;# 
   367  0718                     	;# 
   368  0719                     	;# 
   369  071A                     	;# 
   370  071B                     	;# 
   371  071C                     	;# 
   372  071D                     	;# 
   373  071E                     	;# 
   374  0796                     	;# 
   375  0797                     	;# 
   376  0798                     	;# 
   377  0799                     	;# 
   378  079A                     	;# 
   379  079B                     	;# 
   380  080C                     	;# 
   381  080D                     	;# 
   382  080E                     	;# 
   383  080F                     	;# 
   384  0810                     	;# 
   385  0811                     	;# 
   386  0812                     	;# 
   387  0813                     	;# 
   388  0814                     	;# 
   389  081A                     	;# 
   390  081B                     	;# 
   391  081C                     	;# 
   392  081D                     	;# 
   393  081E                     	;# 
   394  081F                     	;# 
   395  088C                     	;# 
   396  088D                     	;# 
   397  088E                     	;# 
   398  088F                     	;# 
   399  0890                     	;# 
   400  0891                     	;# 
   401  0892                     	;# 
   402  0893                     	;# 
   403  0895                     	;# 
   404  0896                     	;# 
   405  0897                     	;# 
   406  0898                     	;# 
   407  0899                     	;# 
   408  089A                     	;# 
   409  089B                     	;# 
   410  090C                     	;# 
   411  090E                     	;# 
   412  090F                     	;# 
   413  091F                     	;# 
   414  091F                     	;# 
   415  098F                     	;# 
   416  098F                     	;# 
   417  0990                     	;# 
   418  0991                     	;# 
   419  0992                     	;# 
   420  0993                     	;# 
   421  0994                     	;# 
   422  0995                     	;# 
   423  0996                     	;# 
   424  0997                     	;# 
   425  0E0F                     	;# 
   426  0E10                     	;# 
   427  0E11                     	;# 
   428  0E12                     	;# 
   429  0E13                     	;# 
   430  0E14                     	;# 
   431  0E15                     	;# 
   432  0E16                     	;# 
   433  0E17                     	;# 
   434  0E18                     	;# 
   435  0E19                     	;# 
   436  0E1A                     	;# 
   437  0E1B                     	;# 
   438  0E1C                     	;# 
   439  0E1D                     	;# 
   440  0E1E                     	;# 
   441  0E1F                     	;# 
   442  0E20                     	;# 
   443  0E21                     	;# 
   444  0E22                     	;# 
   445  0E23                     	;# 
   446  0E24                     	;# 
   447  0E25                     	;# 
   448  0E26                     	;# 
   449  0E27                     	;# 
   450  0E28                     	;# 
   451  0E29                     	;# 
   452  0E2A                     	;# 
   453  0E2B                     	;# 
   454  0E2C                     	;# 
   455  0E2D                     	;# 
   456  0E2E                     	;# 
   457  0E2F                     	;# 
   458  0E30                     	;# 
   459  0E31                     	;# 
   460  0E32                     	;# 
   461  0E33                     	;# 
   462  0E34                     	;# 
   463  0E35                     	;# 
   464  0E36                     	;# 
   465  0E37                     	;# 
   466  0E8F                     	;# 
   467  0E90                     	;# 
   468  0E91                     	;# 
   469  0E92                     	;# 
   470  0E93                     	;# 
   471  0E94                     	;# 
   472  0E95                     	;# 
   473  0E96                     	;# 
   474  0E97                     	;# 
   475  0E9C                     	;# 
   476  0E9D                     	;# 
   477  0E9E                     	;# 
   478  0EA1                     	;# 
   479  0EA2                     	;# 
   480  0EA3                     	;# 
   481  0EA4                     	;# 
   482  0EA5                     	;# 
   483  0EA9                     	;# 
   484  0EAA                     	;# 
   485  0EAB                     	;# 
   486  0EAC                     	;# 
   487  0EB1                     	;# 
   488  0EB2                     	;# 
   489  0EB3                     	;# 
   490  0EB8                     	;# 
   491  0EB9                     	;# 
   492  0EBA                     	;# 
   493  0EBB                     	;# 
   494  0EBC                     	;# 
   495  0EBD                     	;# 
   496  0EBE                     	;# 
   497  0EC3                     	;# 
   498  0EC5                     	;# 
   499  0EC6                     	;# 
   500  0EC7                     	;# 
   501  0EC8                     	;# 
   502  0EC9                     	;# 
   503  0ECA                     	;# 
   504  0ECB                     	;# 
   505  0ECC                     	;# 
   506  0F10                     	;# 
   507  0F11                     	;# 
   508  0F12                     	;# 
   509  0F13                     	;# 
   510  0F14                     	;# 
   511  0F15                     	;# 
   512  0F16                     	;# 
   513  0F17                     	;# 
   514  0F18                     	;# 
   515  0F19                     	;# 
   516  0F1A                     	;# 
   517  0F1B                     	;# 
   518  0F1C                     	;# 
   519  0F1D                     	;# 
   520  0F1E                     	;# 
   521  0F1F                     	;# 
   522  0F20                     	;# 
   523  0F21                     	;# 
   524  0F22                     	;# 
   525  0F23                     	;# 
   526  0F24                     	;# 
   527  0F25                     	;# 
   528  0F26                     	;# 
   529  0F27                     	;# 
   530  0F38                     	;# 
   531  0F39                     	;# 
   532  0F3A                     	;# 
   533  0F3B                     	;# 
   534  0F3C                     	;# 
   535  0F3D                     	;# 
   536  0F3E                     	;# 
   537  0F3F                     	;# 
   538  0F40                     	;# 
   539  0F41                     	;# 
   540  0F43                     	;# 
   541  0F44                     	;# 
   542  0F45                     	;# 
   543  0F46                     	;# 
   544  0F47                     	;# 
   545  0F48                     	;# 
   546  0F49                     	;# 
   547  0F4A                     	;# 
   548  0F4B                     	;# 
   549  0F4C                     	;# 
   550  0F4E                     	;# 
   551  0F4F                     	;# 
   552  0F50                     	;# 
   553  0F51                     	;# 
   554  0F52                     	;# 
   555  0F53                     	;# 
   556  0F54                     	;# 
   557  0F55                     	;# 
   558  0F56                     	;# 
   559  0F57                     	;# 
   560  0F65                     	;# 
   561  0F68                     	;# 
   562  0F69                     	;# 
   563  0F6A                     	;# 
   564  0F6B                     	;# 
   565  0FE4                     	;# 
   566  0FE5                     	;# 
   567  0FE6                     	;# 
   568  0FE7                     	;# 
   569  0FE8                     	;# 
   570  0FE9                     	;# 
   571  0FEA                     	;# 
   572  0FEB                     	;# 
   573  0FED                     	;# 
   574  0FEE                     	;# 
   575  0FEF                     	;# 
   576  0000                     	;# 
   577  0001                     	;# 
   578  0002                     	;# 
   579  0003                     	;# 
   580  0004                     	;# 
   581  0005                     	;# 
   582  0006                     	;# 
   583  0007                     	;# 
   584  0008                     	;# 
   585  0009                     	;# 
   586  000A                     	;# 
   587  000B                     	;# 
   588  000C                     	;# 
   589  000D                     	;# 
   590  000E                     	;# 
   591  0010                     	;# 
   592  0011                     	;# 
   593  0012                     	;# 
   594  0013                     	;# 
   595  0016                     	;# 
   596  0017                     	;# 
   597  0018                     	;# 
   598  001C                     	;# 
   599  001C                     	;# 
   600  001D                     	;# 
   601  001D                     	;# 
   602  001E                     	;# 
   603  001F                     	;# 
   604  008C                     	;# 
   605  008C                     	;# 
   606  008D                     	;# 
   607  008E                     	;# 
   608  008E                     	;# 
   609  008F                     	;# 
   610  0090                     	;# 
   611  0090                     	;# 
   612  0091                     	;# 
   613  0093                     	;# 
   614  0094                     	;# 
   615  0095                     	;# 
   616  0096                     	;# 
   617  0097                     	;# 
   618  0098                     	;# 
   619  0099                     	;# 
   620  009A                     	;# 
   621  009B                     	;# 
   622  009C                     	;# 
   623  009D                     	;# 
   624  009E                     	;# 
   625  010C                     	;# 
   626  010D                     	;# 
   627  010E                     	;# 
   628  010E                     	;# 
   629  010F                     	;# 
   630  0110                     	;# 
   631  0110                     	;# 
   632  0111                     	;# 
   633  0112                     	;# 
   634  0112                     	;# 
   635  0113                     	;# 
   636  0114                     	;# 
   637  0114                     	;# 
   638  0115                     	;# 
   639  0116                     	;# 
   640  0116                     	;# 
   641  0117                     	;# 
   642  0119                     	;# 
   643  0119                     	;# 
   644  0119                     	;# 
   645  011A                     	;# 
   646  011A                     	;# 
   647  011A                     	;# 
   648  011B                     	;# 
   649  011B                     	;# 
   650  011B                     	;# 
   651  011B                     	;# 
   652  011B                     	;# 
   653  011C                     	;# 
   654  011C                     	;# 
   655  011C                     	;# 
   656  011D                     	;# 
   657  011D                     	;# 
   658  011D                     	;# 
   659  011E                     	;# 
   660  011E                     	;# 
   661  011E                     	;# 
   662  011F                     	;# 
   663  011F                     	;# 
   664  011F                     	;# 
   665  011F                     	;# 
   666  011F                     	;# 
   667  018C                     	;# 
   668  018D                     	;# 
   669  018E                     	;# 
   670  018F                     	;# 
   671  0190                     	;# 
   672  0191                     	;# 
   673  0192                     	;# 
   674  0196                     	;# 
   675  0197                     	;# 
   676  0198                     	;# 
   677  0199                     	;# 
   678  019A                     	;# 
   679  019B                     	;# 
   680  019C                     	;# 
   681  020C                     	;# 
   682  020C                     	;# 
   683  020D                     	;# 
   684  020E                     	;# 
   685  020F                     	;# 
   686  020F                     	;# 
   687  0210                     	;# 
   688  0210                     	;# 
   689  0211                     	;# 
   690  0211                     	;# 
   691  0212                     	;# 
   692  0212                     	;# 
   693  0213                     	;# 
   694  0214                     	;# 
   695  0215                     	;# 
   696  0215                     	;# 
   697  0216                     	;# 
   698  0216                     	;# 
   699  0217                     	;# 
   700  0217                     	;# 
   701  0218                     	;# 
   702  0218                     	;# 
   703  0219                     	;# 
   704  021A                     	;# 
   705  021B                     	;# 
   706  021B                     	;# 
   707  021C                     	;# 
   708  021C                     	;# 
   709  021D                     	;# 
   710  021D                     	;# 
   711  021E                     	;# 
   712  021F                     	;# 
   713  028C                     	;# 
   714  028C                     	;# 
   715  028D                     	;# 
   716  028D                     	;# 
   717  028E                     	;# 
   718  028F                     	;# 
   719  0290                     	;# 
   720  0290                     	;# 
   721  0291                     	;# 
   722  0292                     	;# 
   723  0292                     	;# 
   724  0293                     	;# 
   725  0293                     	;# 
   726  0294                     	;# 
   727  0295                     	;# 
   728  0296                     	;# 
   729  0296                     	;# 
   730  0297                     	;# 
   731  0298                     	;# 
   732  0298                     	;# 
   733  0299                     	;# 
   734  0299                     	;# 
   735  029A                     	;# 
   736  029B                     	;# 
   737  029C                     	;# 
   738  029C                     	;# 
   739  029D                     	;# 
   740  030C                     	;# 
   741  030C                     	;# 
   742  030D                     	;# 
   743  030E                     	;# 
   744  030F                     	;# 
   745  0310                     	;# 
   746  0310                     	;# 
   747  0311                     	;# 
   748  0312                     	;# 
   749  0313                     	;# 
   750  0314                     	;# 
   751  0314                     	;# 
   752  0315                     	;# 
   753  0316                     	;# 
   754  0317                     	;# 
   755  0318                     	;# 
   756  0318                     	;# 
   757  0319                     	;# 
   758  031A                     	;# 
   759  031B                     	;# 
   760  031C                     	;# 
   761  031C                     	;# 
   762  031D                     	;# 
   763  031E                     	;# 
   764  031F                     	;# 
   765  038C                     	;# 
   766  038C                     	;# 
   767  038D                     	;# 
   768  038E                     	;# 
   769  0390                     	;# 
   770  0390                     	;# 
   771  0391                     	;# 
   772  0392                     	;# 
   773  040C                     	;# 
   774  040D                     	;# 
   775  040E                     	;# 
   776  040F                     	;# 
   777  0410                     	;# 
   778  0411                     	;# 
   779  0416                     	;# 
   780  0416                     	;# 
   781  0417                     	;# 
   782  0418                     	;# 
   783  0418                     	;# 
   784  0419                     	;# 
   785  041A                     	;# 
   786  041A                     	;# 
   787  041B                     	;# 
   788  041C                     	;# 
   789  041C                     	;# 
   790  041D                     	;# 
   791  041E                     	;# 
   792  041F                     	;# 
   793  048C                     	;# 
   794  048C                     	;# 
   795  048D                     	;# 
   796  048E                     	;# 
   797  048F                     	;# 
   798  048F                     	;# 
   799  0490                     	;# 
   800  0491                     	;# 
   801  0492                     	;# 
   802  0492                     	;# 
   803  0493                     	;# 
   804  0494                     	;# 
   805  0495                     	;# 
   806  0495                     	;# 
   807  0496                     	;# 
   808  0497                     	;# 
   809  0498                     	;# 
   810  0499                     	;# 
   811  049A                     	;# 
   812  049B                     	;# 
   813  049C                     	;# 
   814  049D                     	;# 
   815  050C                     	;# 
   816  050C                     	;# 
   817  050D                     	;# 
   818  050E                     	;# 
   819  050F                     	;# 
   820  050F                     	;# 
   821  0510                     	;# 
   822  0511                     	;# 
   823  0512                     	;# 
   824  0512                     	;# 
   825  0513                     	;# 
   826  0514                     	;# 
   827  0515                     	;# 
   828  0515                     	;# 
   829  0516                     	;# 
   830  0517                     	;# 
   831  0518                     	;# 
   832  0519                     	;# 
   833  051A                     	;# 
   834  051B                     	;# 
   835  051C                     	;# 
   836  051D                     	;# 
   837  058C                     	;# 
   838  058C                     	;# 
   839  058D                     	;# 
   840  058E                     	;# 
   841  058F                     	;# 
   842  058F                     	;# 
   843  0590                     	;# 
   844  0591                     	;# 
   845  0592                     	;# 
   846  0593                     	;# 
   847  060C                     	;# 
   848  060D                     	;# 
   849  060E                     	;# 
   850  060F                     	;# 
   851  0610                     	;# 
   852  0611                     	;# 
   853  0612                     	;# 
   854  0613                     	;# 
   855  0614                     	;# 
   856  0616                     	;# 
   857  0617                     	;# 
   858  0618                     	;# 
   859  0619                     	;# 
   860  061A                     	;# 
   861  061B                     	;# 
   862  061C                     	;# 
   863  061D                     	;# 
   864  061E                     	;# 
   865  068C                     	;# 
   866  068D                     	;# 
   867  068E                     	;# 
   868  068F                     	;# 
   869  0690                     	;# 
   870  0691                     	;# 
   871  0692                     	;# 
   872  0693                     	;# 
   873  0694                     	;# 
   874  070C                     	;# 
   875  070D                     	;# 
   876  070E                     	;# 
   877  070F                     	;# 
   878  0710                     	;# 
   879  0711                     	;# 
   880  0712                     	;# 
   881  0713                     	;# 
   882  0714                     	;# 
   883  0716                     	;# 
   884  0717                     	;# 
   885  0718                     	;# 
   886  0719                     	;# 
   887  071A                     	;# 
   888  071B                     	;# 
   889  071C                     	;# 
   890  071D                     	;# 
   891  071E                     	;# 
   892  0796                     	;# 
   893  0797                     	;# 
   894  0798                     	;# 
   895  0799                     	;# 
   896  079A                     	;# 
   897  079B                     	;# 
   898  080C                     	;# 
   899  080D                     	;# 
   900  080E                     	;# 
   901  080F                     	;# 
   902  0810                     	;# 
   903  0811                     	;# 
   904  0812                     	;# 
   905  0813                     	;# 
   906  0814                     	;# 
   907  081A                     	;# 
   908  081B                     	;# 
   909  081C                     	;# 
   910  081D                     	;# 
   911  081E                     	;# 
   912  081F                     	;# 
   913  088C                     	;# 
   914  088D                     	;# 
   915  088E                     	;# 
   916  088F                     	;# 
   917  0890                     	;# 
   918  0891                     	;# 
   919  0892                     	;# 
   920  0893                     	;# 
   921  0895                     	;# 
   922  0896                     	;# 
   923  0897                     	;# 
   924  0898                     	;# 
   925  0899                     	;# 
   926  089A                     	;# 
   927  089B                     	;# 
   928  090C                     	;# 
   929  090E                     	;# 
   930  090F                     	;# 
   931  091F                     	;# 
   932  091F                     	;# 
   933  098F                     	;# 
   934  098F                     	;# 
   935  0990                     	;# 
   936  0991                     	;# 
   937  0992                     	;# 
   938  0993                     	;# 
   939  0994                     	;# 
   940  0995                     	;# 
   941  0996                     	;# 
   942  0997                     	;# 
   943  0E0F                     	;# 
   944  0E10                     	;# 
   945  0E11                     	;# 
   946  0E12                     	;# 
   947  0E13                     	;# 
   948  0E14                     	;# 
   949  0E15                     	;# 
   950  0E16                     	;# 
   951  0E17                     	;# 
   952  0E18                     	;# 
   953  0E19                     	;# 
   954  0E1A                     	;# 
   955  0E1B                     	;# 
   956  0E1C                     	;# 
   957  0E1D                     	;# 
   958  0E1E                     	;# 
   959  0E1F                     	;# 
   960  0E20                     	;# 
   961  0E21                     	;# 
   962  0E22                     	;# 
   963  0E23                     	;# 
   964  0E24                     	;# 
   965  0E25                     	;# 
   966  0E26                     	;# 
   967  0E27                     	;# 
   968  0E28                     	;# 
   969  0E29                     	;# 
   970  0E2A                     	;# 
   971  0E2B                     	;# 
   972  0E2C                     	;# 
   973  0E2D                     	;# 
   974  0E2E                     	;# 
   975  0E2F                     	;# 
   976  0E30                     	;# 
   977  0E31                     	;# 
   978  0E32                     	;# 
   979  0E33                     	;# 
   980  0E34                     	;# 
   981  0E35                     	;# 
   982  0E36                     	;# 
   983  0E37                     	;# 
   984  0E8F                     	;# 
   985  0E90                     	;# 
   986  0E91                     	;# 
   987  0E92                     	;# 
   988  0E93                     	;# 
   989  0E94                     	;# 
   990  0E95                     	;# 
   991  0E96                     	;# 
   992  0E97                     	;# 
   993  0E9C                     	;# 
   994  0E9D                     	;# 
   995  0E9E                     	;# 
   996  0EA1                     	;# 
   997  0EA2                     	;# 
   998  0EA3                     	;# 
   999  0EA4                     	;# 
  1000  0EA5                     	;# 
  1001  0EA9                     	;# 
  1002  0EAA                     	;# 
  1003  0EAB                     	;# 
  1004  0EAC                     	;# 
  1005  0EB1                     	;# 
  1006  0EB2                     	;# 
  1007  0EB3                     	;# 
  1008  0EB8                     	;# 
  1009  0EB9                     	;# 
  1010  0EBA                     	;# 
  1011  0EBB                     	;# 
  1012  0EBC                     	;# 
  1013  0EBD                     	;# 
  1014  0EBE                     	;# 
  1015  0EC3                     	;# 
  1016  0EC5                     	;# 
  1017  0EC6                     	;# 
  1018  0EC7                     	;# 
  1019  0EC8                     	;# 
  1020  0EC9                     	;# 
  1021  0ECA                     	;# 
  1022  0ECB                     	;# 
  1023  0ECC                     	;# 
  1024  0F10                     	;# 
  1025  0F11                     	;# 
  1026  0F12                     	;# 
  1027  0F13                     	;# 
  1028  0F14                     	;# 
  1029  0F15                     	;# 
  1030  0F16                     	;# 
  1031  0F17                     	;# 
  1032  0F18                     	;# 
  1033  0F19                     	;# 
  1034  0F1A                     	;# 
  1035  0F1B                     	;# 
  1036  0F1C                     	;# 
  1037  0F1D                     	;# 
  1038  0F1E                     	;# 
  1039  0F1F                     	;# 
  1040  0F20                     	;# 
  1041  0F21                     	;# 
  1042  0F22                     	;# 
  1043  0F23                     	;# 
  1044  0F24                     	;# 
  1045  0F25                     	;# 
  1046  0F26                     	;# 
  1047  0F27                     	;# 
  1048  0F38                     	;# 
  1049  0F39                     	;# 
  1050  0F3A                     	;# 
  1051  0F3B                     	;# 
  1052  0F3C                     	;# 
  1053  0F3D                     	;# 
  1054  0F3E                     	;# 
  1055  0F3F                     	;# 
  1056  0F40                     	;# 
  1057  0F41                     	;# 
  1058  0F43                     	;# 
  1059  0F44                     	;# 
  1060  0F45                     	;# 
  1061  0F46                     	;# 
  1062  0F47                     	;# 
  1063  0F48                     	;# 
  1064  0F49                     	;# 
  1065  0F4A                     	;# 
  1066  0F4B                     	;# 
  1067  0F4C                     	;# 
  1068  0F4E                     	;# 
  1069  0F4F                     	;# 
  1070  0F50                     	;# 
  1071  0F51                     	;# 
  1072  0F52                     	;# 
  1073  0F53                     	;# 
  1074  0F54                     	;# 
  1075  0F55                     	;# 
  1076  0F56                     	;# 
  1077  0F57                     	;# 
  1078  0F65                     	;# 
  1079  0F68                     	;# 
  1080  0F69                     	;# 
  1081  0F6A                     	;# 
  1082  0F6B                     	;# 
  1083  0FE4                     	;# 
  1084  0FE5                     	;# 
  1085  0FE6                     	;# 
  1086  0FE7                     	;# 
  1087  0FE8                     	;# 
  1088  0FE9                     	;# 
  1089  0FEA                     	;# 
  1090  0FEB                     	;# 
  1091  0FED                     	;# 
  1092  0FEE                     	;# 
  1093  0FEF                     	;# 
  1094  0000                     	;# 
  1095  0001                     	;# 
  1096  0002                     	;# 
  1097  0003                     	;# 
  1098  0004                     	;# 
  1099  0005                     	;# 
  1100  0006                     	;# 
  1101  0007                     	;# 
  1102  0008                     	;# 
  1103  0009                     	;# 
  1104  000A                     	;# 
  1105  000B                     	;# 
  1106  000C                     	;# 
  1107  000D                     	;# 
  1108  000E                     	;# 
  1109  0010                     	;# 
  1110  0011                     	;# 
  1111  0012                     	;# 
  1112  0013                     	;# 
  1113  0016                     	;# 
  1114  0017                     	;# 
  1115  0018                     	;# 
  1116  001C                     	;# 
  1117  001C                     	;# 
  1118  001D                     	;# 
  1119  001D                     	;# 
  1120  001E                     	;# 
  1121  001F                     	;# 
  1122  008C                     	;# 
  1123  008C                     	;# 
  1124  008D                     	;# 
  1125  008E                     	;# 
  1126  008E                     	;# 
  1127  008F                     	;# 
  1128  0090                     	;# 
  1129  0090                     	;# 
  1130  0091                     	;# 
  1131  0093                     	;# 
  1132  0094                     	;# 
  1133  0095                     	;# 
  1134  0096                     	;# 
  1135  0097                     	;# 
  1136  0098                     	;# 
  1137  0099                     	;# 
  1138  009A                     	;# 
  1139  009B                     	;# 
  1140  009C                     	;# 
  1141  009D                     	;# 
  1142  009E                     	;# 
  1143  010C                     	;# 
  1144  010D                     	;# 
  1145  010E                     	;# 
  1146  010E                     	;# 
  1147  010F                     	;# 
  1148  0110                     	;# 
  1149  0110                     	;# 
  1150  0111                     	;# 
  1151  0112                     	;# 
  1152  0112                     	;# 
  1153  0113                     	;# 
  1154  0114                     	;# 
  1155  0114                     	;# 
  1156  0115                     	;# 
  1157  0116                     	;# 
  1158  0116                     	;# 
  1159  0117                     	;# 
  1160  0119                     	;# 
  1161  0119                     	;# 
  1162  0119                     	;# 
  1163  011A                     	;# 
  1164  011A                     	;# 
  1165  011A                     	;# 
  1166  011B                     	;# 
  1167  011B                     	;# 
  1168  011B                     	;# 
  1169  011B                     	;# 
  1170  011B                     	;# 
  1171  011C                     	;# 
  1172  011C                     	;# 
  1173  011C                     	;# 
  1174  011D                     	;# 
  1175  011D                     	;# 
  1176  011D                     	;# 
  1177  011E                     	;# 
  1178  011E                     	;# 
  1179  011E                     	;# 
  1180  011F                     	;# 
  1181  011F                     	;# 
  1182  011F                     	;# 
  1183  011F                     	;# 
  1184  011F                     	;# 
  1185  018C                     	;# 
  1186  018D                     	;# 
  1187  018E                     	;# 
  1188  018F                     	;# 
  1189  0190                     	;# 
  1190  0191                     	;# 
  1191  0192                     	;# 
  1192  0196                     	;# 
  1193  0197                     	;# 
  1194  0198                     	;# 
  1195  0199                     	;# 
  1196  019A                     	;# 
  1197  019B                     	;# 
  1198  019C                     	;# 
  1199  020C                     	;# 
  1200  020C                     	;# 
  1201  020D                     	;# 
  1202  020E                     	;# 
  1203  020F                     	;# 
  1204  020F                     	;# 
  1205  0210                     	;# 
  1206  0210                     	;# 
  1207  0211                     	;# 
  1208  0211                     	;# 
  1209  0212                     	;# 
  1210  0212                     	;# 
  1211  0213                     	;# 
  1212  0214                     	;# 
  1213  0215                     	;# 
  1214  0215                     	;# 
  1215  0216                     	;# 
  1216  0216                     	;# 
  1217  0217                     	;# 
  1218  0217                     	;# 
  1219  0218                     	;# 
  1220  0218                     	;# 
  1221  0219                     	;# 
  1222  021A                     	;# 
  1223  021B                     	;# 
  1224  021B                     	;# 
  1225  021C                     	;# 
  1226  021C                     	;# 
  1227  021D                     	;# 
  1228  021D                     	;# 
  1229  021E                     	;# 
  1230  021F                     	;# 
  1231  028C                     	;# 
  1232  028C                     	;# 
  1233  028D                     	;# 
  1234  028D                     	;# 
  1235  028E                     	;# 
  1236  028F                     	;# 
  1237  0290                     	;# 
  1238  0290                     	;# 
  1239  0291                     	;# 
  1240  0292                     	;# 
  1241  0292                     	;# 
  1242  0293                     	;# 
  1243  0293                     	;# 
  1244  0294                     	;# 
  1245  0295                     	;# 
  1246  0296                     	;# 
  1247  0296                     	;# 
  1248  0297                     	;# 
  1249  0298                     	;# 
  1250  0298                     	;# 
  1251  0299                     	;# 
  1252  0299                     	;# 
  1253  029A                     	;# 
  1254  029B                     	;# 
  1255  029C                     	;# 
  1256  029C                     	;# 
  1257  029D                     	;# 
  1258  030C                     	;# 
  1259  030C                     	;# 
  1260  030D                     	;# 
  1261  030E                     	;# 
  1262  030F                     	;# 
  1263  0310                     	;# 
  1264  0310                     	;# 
  1265  0311                     	;# 
  1266  0312                     	;# 
  1267  0313                     	;# 
  1268  0314                     	;# 
  1269  0314                     	;# 
  1270  0315                     	;# 
  1271  0316                     	;# 
  1272  0317                     	;# 
  1273  0318                     	;# 
  1274  0318                     	;# 
  1275  0319                     	;# 
  1276  031A                     	;# 
  1277  031B                     	;# 
  1278  031C                     	;# 
  1279  031C                     	;# 
  1280  031D                     	;# 
  1281  031E                     	;# 
  1282  031F                     	;# 
  1283  038C                     	;# 
  1284  038C                     	;# 
  1285  038D                     	;# 
  1286  038E                     	;# 
  1287  0390                     	;# 
  1288  0390                     	;# 
  1289  0391                     	;# 
  1290  0392                     	;# 
  1291  040C                     	;# 
  1292  040D                     	;# 
  1293  040E                     	;# 
  1294  040F                     	;# 
  1295  0410                     	;# 
  1296  0411                     	;# 
  1297  0416                     	;# 
  1298  0416                     	;# 
  1299  0417                     	;# 
  1300  0418                     	;# 
  1301  0418                     	;# 
  1302  0419                     	;# 
  1303  041A                     	;# 
  1304  041A                     	;# 
  1305  041B                     	;# 
  1306  041C                     	;# 
  1307  041C                     	;# 
  1308  041D                     	;# 
  1309  041E                     	;# 
  1310  041F                     	;# 
  1311  048C                     	;# 
  1312  048C                     	;# 
  1313  048D                     	;# 
  1314  048E                     	;# 
  1315  048F                     	;# 
  1316  048F                     	;# 
  1317  0490                     	;# 
  1318  0491                     	;# 
  1319  0492                     	;# 
  1320  0492                     	;# 
  1321  0493                     	;# 
  1322  0494                     	;# 
  1323  0495                     	;# 
  1324  0495                     	;# 
  1325  0496                     	;# 
  1326  0497                     	;# 
  1327  0498                     	;# 
  1328  0499                     	;# 
  1329  049A                     	;# 
  1330  049B                     	;# 
  1331  049C                     	;# 
  1332  049D                     	;# 
  1333  050C                     	;# 
  1334  050C                     	;# 
  1335  050D                     	;# 
  1336  050E                     	;# 
  1337  050F                     	;# 
  1338  050F                     	;# 
  1339  0510                     	;# 
  1340  0511                     	;# 
  1341  0512                     	;# 
  1342  0512                     	;# 
  1343  0513                     	;# 
  1344  0514                     	;# 
  1345  0515                     	;# 
  1346  0515                     	;# 
  1347  0516                     	;# 
  1348  0517                     	;# 
  1349  0518                     	;# 
  1350  0519                     	;# 
  1351  051A                     	;# 
  1352  051B                     	;# 
  1353  051C                     	;# 
  1354  051D                     	;# 
  1355  058C                     	;# 
  1356  058C                     	;# 
  1357  058D                     	;# 
  1358  058E                     	;# 
  1359  058F                     	;# 
  1360  058F                     	;# 
  1361  0590                     	;# 
  1362  0591                     	;# 
  1363  0592                     	;# 
  1364  0593                     	;# 
  1365  060C                     	;# 
  1366  060D                     	;# 
  1367  060E                     	;# 
  1368  060F                     	;# 
  1369  0610                     	;# 
  1370  0611                     	;# 
  1371  0612                     	;# 
  1372  0613                     	;# 
  1373  0614                     	;# 
  1374  0616                     	;# 
  1375  0617                     	;# 
  1376  0618                     	;# 
  1377  0619                     	;# 
  1378  061A                     	;# 
  1379  061B                     	;# 
  1380  061C                     	;# 
  1381  061D                     	;# 
  1382  061E                     	;# 
  1383  068C                     	;# 
  1384  068D                     	;# 
  1385  068E                     	;# 
  1386  068F                     	;# 
  1387  0690                     	;# 
  1388  0691                     	;# 
  1389  0692                     	;# 
  1390  0693                     	;# 
  1391  0694                     	;# 
  1392  070C                     	;# 
  1393  070D                     	;# 
  1394  070E                     	;# 
  1395  070F                     	;# 
  1396  0710                     	;# 
  1397  0711                     	;# 
  1398  0712                     	;# 
  1399  0713                     	;# 
  1400  0714                     	;# 
  1401  0716                     	;# 
  1402  0717                     	;# 
  1403  0718                     	;# 
  1404  0719                     	;# 
  1405  071A                     	;# 
  1406  071B                     	;# 
  1407  071C                     	;# 
  1408  071D                     	;# 
  1409  071E                     	;# 
  1410  0796                     	;# 
  1411  0797                     	;# 
  1412  0798                     	;# 
  1413  0799                     	;# 
  1414  079A                     	;# 
  1415  079B                     	;# 
  1416  080C                     	;# 
  1417  080D                     	;# 
  1418  080E                     	;# 
  1419  080F                     	;# 
  1420  0810                     	;# 
  1421  0811                     	;# 
  1422  0812                     	;# 
  1423  0813                     	;# 
  1424  0814                     	;# 
  1425  081A                     	;# 
  1426  081B                     	;# 
  1427  081C                     	;# 
  1428  081D                     	;# 
  1429  081E                     	;# 
  1430  081F                     	;# 
  1431  088C                     	;# 
  1432  088D                     	;# 
  1433  088E                     	;# 
  1434  088F                     	;# 
  1435  0890                     	;# 
  1436  0891                     	;# 
  1437  0892                     	;# 
  1438  0893                     	;# 
  1439  0895                     	;# 
  1440  0896                     	;# 
  1441  0897                     	;# 
  1442  0898                     	;# 
  1443  0899                     	;# 
  1444  089A                     	;# 
  1445  089B                     	;# 
  1446  090C                     	;# 
  1447  090E                     	;# 
  1448  090F                     	;# 
  1449  091F                     	;# 
  1450  091F                     	;# 
  1451  098F                     	;# 
  1452  098F                     	;# 
  1453  0990                     	;# 
  1454  0991                     	;# 
  1455  0992                     	;# 
  1456  0993                     	;# 
  1457  0994                     	;# 
  1458  0995                     	;# 
  1459  0996                     	;# 
  1460  0997                     	;# 
  1461  0E0F                     	;# 
  1462  0E10                     	;# 
  1463  0E11                     	;# 
  1464  0E12                     	;# 
  1465  0E13                     	;# 
  1466  0E14                     	;# 
  1467  0E15                     	;# 
  1468  0E16                     	;# 
  1469  0E17                     	;# 
  1470  0E18                     	;# 
  1471  0E19                     	;# 
  1472  0E1A                     	;# 
  1473  0E1B                     	;# 
  1474  0E1C                     	;# 
  1475  0E1D                     	;# 
  1476  0E1E                     	;# 
  1477  0E1F                     	;# 
  1478  0E20                     	;# 
  1479  0E21                     	;# 
  1480  0E22                     	;# 
  1481  0E23                     	;# 
  1482  0E24                     	;# 
  1483  0E25                     	;# 
  1484  0E26                     	;# 
  1485  0E27                     	;# 
  1486  0E28                     	;# 
  1487  0E29                     	;# 
  1488  0E2A                     	;# 
  1489  0E2B                     	;# 
  1490  0E2C                     	;# 
  1491  0E2D                     	;# 
  1492  0E2E                     	;# 
  1493  0E2F                     	;# 
  1494  0E30                     	;# 
  1495  0E31                     	;# 
  1496  0E32                     	;# 
  1497  0E33                     	;# 
  1498  0E34                     	;# 
  1499  0E35                     	;# 
  1500  0E36                     	;# 
  1501  0E37                     	;# 
  1502  0E8F                     	;# 
  1503  0E90                     	;# 
  1504  0E91                     	;# 
  1505  0E92                     	;# 
  1506  0E93                     	;# 
  1507  0E94                     	;# 
  1508  0E95                     	;# 
  1509  0E96                     	;# 
  1510  0E97                     	;# 
  1511  0E9C                     	;# 
  1512  0E9D                     	;# 
  1513  0E9E                     	;# 
  1514  0EA1                     	;# 
  1515  0EA2                     	;# 
  1516  0EA3                     	;# 
  1517  0EA4                     	;# 
  1518  0EA5                     	;# 
  1519  0EA9                     	;# 
  1520  0EAA                     	;# 
  1521  0EAB                     	;# 
  1522  0EAC                     	;# 
  1523  0EB1                     	;# 
  1524  0EB2                     	;# 
  1525  0EB3                     	;# 
  1526  0EB8                     	;# 
  1527  0EB9                     	;# 
  1528  0EBA                     	;# 
  1529  0EBB                     	;# 
  1530  0EBC                     	;# 
  1531  0EBD                     	;# 
  1532  0EBE                     	;# 
  1533  0EC3                     	;# 
  1534  0EC5                     	;# 
  1535  0EC6                     	;# 
  1536  0EC7                     	;# 
  1537  0EC8                     	;# 
  1538  0EC9                     	;# 
  1539  0ECA                     	;# 
  1540  0ECB                     	;# 
  1541  0ECC                     	;# 
  1542  0F10                     	;# 
  1543  0F11                     	;# 
  1544  0F12                     	;# 
  1545  0F13                     	;# 
  1546  0F14                     	;# 
  1547  0F15                     	;# 
  1548  0F16                     	;# 
  1549  0F17                     	;# 
  1550  0F18                     	;# 
  1551  0F19                     	;# 
  1552  0F1A                     	;# 
  1553  0F1B                     	;# 
  1554  0F1C                     	;# 
  1555  0F1D                     	;# 
  1556  0F1E                     	;# 
  1557  0F1F                     	;# 
  1558  0F20                     	;# 
  1559  0F21                     	;# 
  1560  0F22                     	;# 
  1561  0F23                     	;# 
  1562  0F24                     	;# 
  1563  0F25                     	;# 
  1564  0F26                     	;# 
  1565  0F27                     	;# 
  1566  0F38                     	;# 
  1567  0F39                     	;# 
  1568  0F3A                     	;# 
  1569  0F3B                     	;# 
  1570  0F3C                     	;# 
  1571  0F3D                     	;# 
  1572  0F3E                     	;# 
  1573  0F3F                     	;# 
  1574  0F40                     	;# 
  1575  0F41                     	;# 
  1576  0F43                     	;# 
  1577  0F44                     	;# 
  1578  0F45                     	;# 
  1579  0F46                     	;# 
  1580  0F47                     	;# 
  1581  0F48                     	;# 
  1582  0F49                     	;# 
  1583  0F4A                     	;# 
  1584  0F4B                     	;# 
  1585  0F4C                     	;# 
  1586  0F4E                     	;# 
  1587  0F4F                     	;# 
  1588  0F50                     	;# 
  1589  0F51                     	;# 
  1590  0F52                     	;# 
  1591  0F53                     	;# 
  1592  0F54                     	;# 
  1593  0F55                     	;# 
  1594  0F56                     	;# 
  1595  0F57                     	;# 
  1596  0F65                     	;# 
  1597  0F68                     	;# 
  1598  0F69                     	;# 
  1599  0F6A                     	;# 
  1600  0F6B                     	;# 
  1601  0FE4                     	;# 
  1602  0FE5                     	;# 
  1603  0FE6                     	;# 
  1604  0FE7                     	;# 
  1605  0FE8                     	;# 
  1606  0FE9                     	;# 
  1607  0FEA                     	;# 
  1608  0FEB                     	;# 
  1609  0FED                     	;# 
  1610  0FEE                     	;# 
  1611  0FEF                     	;# 
  1612  0000                     	;# 
  1613  0001                     	;# 
  1614  0002                     	;# 
  1615  0003                     	;# 
  1616  0004                     	;# 
  1617  0005                     	;# 
  1618  0006                     	;# 
  1619  0007                     	;# 
  1620  0008                     	;# 
  1621  0009                     	;# 
  1622  000A                     	;# 
  1623  000B                     	;# 
  1624  000C                     	;# 
  1625  000D                     	;# 
  1626  000E                     	;# 
  1627  0010                     	;# 
  1628  0011                     	;# 
  1629  0012                     	;# 
  1630  0013                     	;# 
  1631  0016                     	;# 
  1632  0017                     	;# 
  1633  0018                     	;# 
  1634  001C                     	;# 
  1635  001C                     	;# 
  1636  001D                     	;# 
  1637  001D                     	;# 
  1638  001E                     	;# 
  1639  001F                     	;# 
  1640  008C                     	;# 
  1641  008C                     	;# 
  1642  008D                     	;# 
  1643  008E                     	;# 
  1644  008E                     	;# 
  1645  008F                     	;# 
  1646  0090                     	;# 
  1647  0090                     	;# 
  1648  0091                     	;# 
  1649  0093                     	;# 
  1650  0094                     	;# 
  1651  0095                     	;# 
  1652  0096                     	;# 
  1653  0097                     	;# 
  1654  0098                     	;# 
  1655  0099                     	;# 
  1656  009A                     	;# 
  1657  009B                     	;# 
  1658  009C                     	;# 
  1659  009D                     	;# 
  1660  009E                     	;# 
  1661  010C                     	;# 
  1662  010D                     	;# 
  1663  010E                     	;# 
  1664  010E                     	;# 
  1665  010F                     	;# 
  1666  0110                     	;# 
  1667  0110                     	;# 
  1668  0111                     	;# 
  1669  0112                     	;# 
  1670  0112                     	;# 
  1671  0113                     	;# 
  1672  0114                     	;# 
  1673  0114                     	;# 
  1674  0115                     	;# 
  1675  0116                     	;# 
  1676  0116                     	;# 
  1677  0117                     	;# 
  1678  0119                     	;# 
  1679  0119                     	;# 
  1680  0119                     	;# 
  1681  011A                     	;# 
  1682  011A                     	;# 
  1683  011A                     	;# 
  1684  011B                     	;# 
  1685  011B                     	;# 
  1686  011B                     	;# 
  1687  011B                     	;# 
  1688  011B                     	;# 
  1689  011C                     	;# 
  1690  011C                     	;# 
  1691  011C                     	;# 
  1692  011D                     	;# 
  1693  011D                     	;# 
  1694  011D                     	;# 
  1695  011E                     	;# 
  1696  011E                     	;# 
  1697  011E                     	;# 
  1698  011F                     	;# 
  1699  011F                     	;# 
  1700  011F                     	;# 
  1701  011F                     	;# 
  1702  011F                     	;# 
  1703  018C                     	;# 
  1704  018D                     	;# 
  1705  018E                     	;# 
  1706  018F                     	;# 
  1707  0190                     	;# 
  1708  0191                     	;# 
  1709  0192                     	;# 
  1710  0196                     	;# 
  1711  0197                     	;# 
  1712  0198                     	;# 
  1713  0199                     	;# 
  1714  019A                     	;# 
  1715  019B                     	;# 
  1716  019C                     	;# 
  1717  020C                     	;# 
  1718  020C                     	;# 
  1719  020D                     	;# 
  1720  020E                     	;# 
  1721  020F                     	;# 
  1722  020F                     	;# 
  1723  0210                     	;# 
  1724  0210                     	;# 
  1725  0211                     	;# 
  1726  0211                     	;# 
  1727  0212                     	;# 
  1728  0212                     	;# 
  1729  0213                     	;# 
  1730  0214                     	;# 
  1731  0215                     	;# 
  1732  0215                     	;# 
  1733  0216                     	;# 
  1734  0216                     	;# 
  1735  0217                     	;# 
  1736  0217                     	;# 
  1737  0218                     	;# 
  1738  0218                     	;# 
  1739  0219                     	;# 
  1740  021A                     	;# 
  1741  021B                     	;# 
  1742  021B                     	;# 
  1743  021C                     	;# 
  1744  021C                     	;# 
  1745  021D                     	;# 
  1746  021D                     	;# 
  1747  021E                     	;# 
  1748  021F                     	;# 
  1749  028C                     	;# 
  1750  028C                     	;# 
  1751  028D                     	;# 
  1752  028D                     	;# 
  1753  028E                     	;# 
  1754  028F                     	;# 
  1755  0290                     	;# 
  1756  0290                     	;# 
  1757  0291                     	;# 
  1758  0292                     	;# 
  1759  0292                     	;# 
  1760  0293                     	;# 
  1761  0293                     	;# 
  1762  0294                     	;# 
  1763  0295                     	;# 
  1764  0296                     	;# 
  1765  0296                     	;# 
  1766  0297                     	;# 
  1767  0298                     	;# 
  1768  0298                     	;# 
  1769  0299                     	;# 
  1770  0299                     	;# 
  1771  029A                     	;# 
  1772  029B                     	;# 
  1773  029C                     	;# 
  1774  029C                     	;# 
  1775  029D                     	;# 
  1776  030C                     	;# 
  1777  030C                     	;# 
  1778  030D                     	;# 
  1779  030E                     	;# 
  1780  030F                     	;# 
  1781  0310                     	;# 
  1782  0310                     	;# 
  1783  0311                     	;# 
  1784  0312                     	;# 
  1785  0313                     	;# 
  1786  0314                     	;# 
  1787  0314                     	;# 
  1788  0315                     	;# 
  1789  0316                     	;# 
  1790  0317                     	;# 
  1791  0318                     	;# 
  1792  0318                     	;# 
  1793  0319                     	;# 
  1794  031A                     	;# 
  1795  031B                     	;# 
  1796  031C                     	;# 
  1797  031C                     	;# 
  1798  031D                     	;# 
  1799  031E                     	;# 
  1800  031F                     	;# 
  1801  038C                     	;# 
  1802  038C                     	;# 
  1803  038D                     	;# 
  1804  038E                     	;# 
  1805  0390                     	;# 
  1806  0390                     	;# 
  1807  0391                     	;# 
  1808  0392                     	;# 
  1809  040C                     	;# 
  1810  040D                     	;# 
  1811  040E                     	;# 
  1812  040F                     	;# 
  1813  0410                     	;# 
  1814  0411                     	;# 
  1815  0416                     	;# 
  1816  0416                     	;# 
  1817  0417                     	;# 
  1818  0418                     	;# 
  1819  0418                     	;# 
  1820  0419                     	;# 
  1821  041A                     	;# 
  1822  041A                     	;# 
  1823  041B                     	;# 
  1824  041C                     	;# 
  1825  041C                     	;# 
  1826  041D                     	;# 
  1827  041E                     	;# 
  1828  041F                     	;# 
  1829  048C                     	;# 
  1830  048C                     	;# 
  1831  048D                     	;# 
  1832  048E                     	;# 
  1833  048F                     	;# 
  1834  048F                     	;# 
  1835  0490                     	;# 
  1836  0491                     	;# 
  1837  0492                     	;# 
  1838  0492                     	;# 
  1839  0493                     	;# 
  1840  0494                     	;# 
  1841  0495                     	;# 
  1842  0495                     	;# 
  1843  0496                     	;# 
  1844  0497                     	;# 
  1845  0498                     	;# 
  1846  0499                     	;# 
  1847  049A                     	;# 
  1848  049B                     	;# 
  1849  049C                     	;# 
  1850  049D                     	;# 
  1851  050C                     	;# 
  1852  050C                     	;# 
  1853  050D                     	;# 
  1854  050E                     	;# 
  1855  050F                     	;# 
  1856  050F                     	;# 
  1857  0510                     	;# 
  1858  0511                     	;# 
  1859  0512                     	;# 
  1860  0512                     	;# 
  1861  0513                     	;# 
  1862  0514                     	;# 
  1863  0515                     	;# 
  1864  0515                     	;# 
  1865  0516                     	;# 
  1866  0517                     	;# 
  1867  0518                     	;# 
  1868  0519                     	;# 
  1869  051A                     	;# 
  1870  051B                     	;# 
  1871  051C                     	;# 
  1872  051D                     	;# 
  1873  058C                     	;# 
  1874  058C                     	;# 
  1875  058D                     	;# 
  1876  058E                     	;# 
  1877  058F                     	;# 
  1878  058F                     	;# 
  1879  0590                     	;# 
  1880  0591                     	;# 
  1881  0592                     	;# 
  1882  0593                     	;# 
  1883  060C                     	;# 
  1884  060D                     	;# 
  1885  060E                     	;# 
  1886  060F                     	;# 
  1887  0610                     	;# 
  1888  0611                     	;# 
  1889  0612                     	;# 
  1890  0613                     	;# 
  1891  0614                     	;# 
  1892  0616                     	;# 
  1893  0617                     	;# 
  1894  0618                     	;# 
  1895  0619                     	;# 
  1896  061A                     	;# 
  1897  061B                     	;# 
  1898  061C                     	;# 
  1899  061D                     	;# 
  1900  061E                     	;# 
  1901  068C                     	;# 
  1902  068D                     	;# 
  1903  068E                     	;# 
  1904  068F                     	;# 
  1905  0690                     	;# 
  1906  0691                     	;# 
  1907  0692                     	;# 
  1908  0693                     	;# 
  1909  0694                     	;# 
  1910  070C                     	;# 
  1911  070D                     	;# 
  1912  070E                     	;# 
  1913  070F                     	;# 
  1914  0710                     	;# 
  1915  0711                     	;# 
  1916  0712                     	;# 
  1917  0713                     	;# 
  1918  0714                     	;# 
  1919  0716                     	;# 
  1920  0717                     	;# 
  1921  0718                     	;# 
  1922  0719                     	;# 
  1923  071A                     	;# 
  1924  071B                     	;# 
  1925  071C                     	;# 
  1926  071D                     	;# 
  1927  071E                     	;# 
  1928  0796                     	;# 
  1929  0797                     	;# 
  1930  0798                     	;# 
  1931  0799                     	;# 
  1932  079A                     	;# 
  1933  079B                     	;# 
  1934  080C                     	;# 
  1935  080D                     	;# 
  1936  080E                     	;# 
  1937  080F                     	;# 
  1938  0810                     	;# 
  1939  0811                     	;# 
  1940  0812                     	;# 
  1941  0813                     	;# 
  1942  0814                     	;# 
  1943  081A                     	;# 
  1944  081B                     	;# 
  1945  081C                     	;# 
  1946  081D                     	;# 
  1947  081E                     	;# 
  1948  081F                     	;# 
  1949  088C                     	;# 
  1950  088D                     	;# 
  1951  088E                     	;# 
  1952  088F                     	;# 
  1953  0890                     	;# 
  1954  0891                     	;# 
  1955  0892                     	;# 
  1956  0893                     	;# 
  1957  0895                     	;# 
  1958  0896                     	;# 
  1959  0897                     	;# 
  1960  0898                     	;# 
  1961  0899                     	;# 
  1962  089A                     	;# 
  1963  089B                     	;# 
  1964  090C                     	;# 
  1965  090E                     	;# 
  1966  090F                     	;# 
  1967  091F                     	;# 
  1968  091F                     	;# 
  1969  098F                     	;# 
  1970  098F                     	;# 
  1971  0990                     	;# 
  1972  0991                     	;# 
  1973  0992                     	;# 
  1974  0993                     	;# 
  1975  0994                     	;# 
  1976  0995                     	;# 
  1977  0996                     	;# 
  1978  0997                     	;# 
  1979  0E0F                     	;# 
  1980  0E10                     	;# 
  1981  0E11                     	;# 
  1982  0E12                     	;# 
  1983  0E13                     	;# 
  1984  0E14                     	;# 
  1985  0E15                     	;# 
  1986  0E16                     	;# 
  1987  0E17                     	;# 
  1988  0E18                     	;# 
  1989  0E19                     	;# 
  1990  0E1A                     	;# 
  1991  0E1B                     	;# 
  1992  0E1C                     	;# 
  1993  0E1D                     	;# 
  1994  0E1E                     	;# 
  1995  0E1F                     	;# 
  1996  0E20                     	;# 
  1997  0E21                     	;# 
  1998  0E22                     	;# 
  1999  0E23                     	;# 
  2000  0E24                     	;# 
  2001  0E25                     	;# 
  2002  0E26                     	;# 
  2003  0E27                     	;# 
  2004  0E28                     	;# 
  2005  0E29                     	;# 
  2006  0E2A                     	;# 
  2007  0E2B                     	;# 
  2008  0E2C                     	;# 
  2009  0E2D                     	;# 
  2010  0E2E                     	;# 
  2011  0E2F                     	;# 
  2012  0E30                     	;# 
  2013  0E31                     	;# 
  2014  0E32                     	;# 
  2015  0E33                     	;# 
  2016  0E34                     	;# 
  2017  0E35                     	;# 
  2018  0E36                     	;# 
  2019  0E37                     	;# 
  2020  0E8F                     	;# 
  2021  0E90                     	;# 
  2022  0E91                     	;# 
  2023  0E92                     	;# 
  2024  0E93                     	;# 
  2025  0E94                     	;# 
  2026  0E95                     	;# 
  2027  0E96                     	;# 
  2028  0E97                     	;# 
  2029  0E9C                     	;# 
  2030  0E9D                     	;# 
  2031  0E9E                     	;# 
  2032  0EA1                     	;# 
  2033  0EA2                     	;# 
  2034  0EA3                     	;# 
  2035  0EA4                     	;# 
  2036  0EA5                     	;# 
  2037  0EA9                     	;# 
  2038  0EAA                     	;# 
  2039  0EAB                     	;# 
  2040  0EAC                     	;# 
  2041  0EB1                     	;# 
  2042  0EB2                     	;# 
  2043  0EB3                     	;# 
  2044  0EB8                     	;# 
  2045  0EB9                     	;# 
  2046  0EBA                     	;# 
  2047  0EBB                     	;# 
  2048  0EBC                     	;# 
  2049  0EBD                     	;# 
  2050  0EBE                     	;# 
  2051  0EC3                     	;# 
  2052  0EC5                     	;# 
  2053  0EC6                     	;# 
  2054  0EC7                     	;# 
  2055  0EC8                     	;# 
  2056  0EC9                     	;# 
  2057  0ECA                     	;# 
  2058  0ECB                     	;# 
  2059  0ECC                     	;# 
  2060  0F10                     	;# 
  2061  0F11                     	;# 
  2062  0F12                     	;# 
  2063  0F13                     	;# 
  2064  0F14                     	;# 
  2065  0F15                     	;# 
  2066  0F16                     	;# 
  2067  0F17                     	;# 
  2068  0F18                     	;# 
  2069  0F19                     	;# 
  2070  0F1A                     	;# 
  2071  0F1B                     	;# 
  2072  0F1C                     	;# 
  2073  0F1D                     	;# 
  2074  0F1E                     	;# 
  2075  0F1F                     	;# 
  2076  0F20                     	;# 
  2077  0F21                     	;# 
  2078  0F22                     	;# 
  2079  0F23                     	;# 
  2080  0F24                     	;# 
  2081  0F25                     	;# 
  2082  0F26                     	;# 
  2083  0F27                     	;# 
  2084  0F38                     	;# 
  2085  0F39                     	;# 
  2086  0F3A                     	;# 
  2087  0F3B                     	;# 
  2088  0F3C                     	;# 
  2089  0F3D                     	;# 
  2090  0F3E                     	;# 
  2091  0F3F                     	;# 
  2092  0F40                     	;# 
  2093  0F41                     	;# 
  2094  0F43                     	;# 
  2095  0F44                     	;# 
  2096  0F45                     	;# 
  2097  0F46                     	;# 
  2098  0F47                     	;# 
  2099  0F48                     	;# 
  2100  0F49                     	;# 
  2101  0F4A                     	;# 
  2102  0F4B                     	;# 
  2103  0F4C                     	;# 
  2104  0F4E                     	;# 
  2105  0F4F                     	;# 
  2106  0F50                     	;# 
  2107  0F51                     	;# 
  2108  0F52                     	;# 
  2109  0F53                     	;# 
  2110  0F54                     	;# 
  2111  0F55                     	;# 
  2112  0F56                     	;# 
  2113  0F57                     	;# 
  2114  0F65                     	;# 
  2115  0F68                     	;# 
  2116  0F69                     	;# 
  2117  0F6A                     	;# 
  2118  0F6B                     	;# 
  2119  0FE4                     	;# 
  2120  0FE5                     	;# 
  2121  0FE6                     	;# 
  2122  0FE7                     	;# 
  2123  0FE8                     	;# 
  2124  0FE9                     	;# 
  2125  0FEA                     	;# 
  2126  0FEB                     	;# 
  2127  0FED                     	;# 
  2128  0FEE                     	;# 
  2129  0FEF                     	;# 
  2130  0000                     	;# 
  2131  0001                     	;# 
  2132  0002                     	;# 
  2133  0003                     	;# 
  2134  0004                     	;# 
  2135  0005                     	;# 
  2136  0006                     	;# 
  2137  0007                     	;# 
  2138  0008                     	;# 
  2139  0009                     	;# 
  2140  000A                     	;# 
  2141  000B                     	;# 
  2142  000C                     	;# 
  2143  000D                     	;# 
  2144  000E                     	;# 
  2145  0010                     	;# 
  2146  0011                     	;# 
  2147  0012                     	;# 
  2148  0013                     	;# 
  2149  0016                     	;# 
  2150  0017                     	;# 
  2151  0018                     	;# 
  2152  001C                     	;# 
  2153  001C                     	;# 
  2154  001D                     	;# 
  2155  001D                     	;# 
  2156  001E                     	;# 
  2157  001F                     	;# 
  2158  008C                     	;# 
  2159  008C                     	;# 
  2160  008D                     	;# 
  2161  008E                     	;# 
  2162  008E                     	;# 
  2163  008F                     	;# 
  2164  0090                     	;# 
  2165  0090                     	;# 
  2166  0091                     	;# 
  2167  0093                     	;# 
  2168  0094                     	;# 
  2169  0095                     	;# 
  2170  0096                     	;# 
  2171  0097                     	;# 
  2172  0098                     	;# 
  2173  0099                     	;# 
  2174  009A                     	;# 
  2175  009B                     	;# 
  2176  009C                     	;# 
  2177  009D                     	;# 
  2178  009E                     	;# 
  2179  010C                     	;# 
  2180  010D                     	;# 
  2181  010E                     	;# 
  2182  010E                     	;# 
  2183  010F                     	;# 
  2184  0110                     	;# 
  2185  0110                     	;# 
  2186  0111                     	;# 
  2187  0112                     	;# 
  2188  0112                     	;# 
  2189  0113                     	;# 
  2190  0114                     	;# 
  2191  0114                     	;# 
  2192  0115                     	;# 
  2193  0116                     	;# 
  2194  0116                     	;# 
  2195  0117                     	;# 
  2196  0119                     	;# 
  2197  0119                     	;# 
  2198  0119                     	;# 
  2199  011A                     	;# 
  2200  011A                     	;# 
  2201  011A                     	;# 
  2202  011B                     	;# 
  2203  011B                     	;# 
  2204  011B                     	;# 
  2205  011B                     	;# 
  2206  011B                     	;# 
  2207  011C                     	;# 
  2208  011C                     	;# 
  2209  011C                     	;# 
  2210  011D                     	;# 
  2211  011D                     	;# 
  2212  011D                     	;# 
  2213  011E                     	;# 
  2214  011E                     	;# 
  2215  011E                     	;# 
  2216  011F                     	;# 
  2217  011F                     	;# 
  2218  011F                     	;# 
  2219  011F                     	;# 
  2220  011F                     	;# 
  2221  018C                     	;# 
  2222  018D                     	;# 
  2223  018E                     	;# 
  2224  018F                     	;# 
  2225  0190                     	;# 
  2226  0191                     	;# 
  2227  0192                     	;# 
  2228  0196                     	;# 
  2229  0197                     	;# 
  2230  0198                     	;# 
  2231  0199                     	;# 
  2232  019A                     	;# 
  2233  019B                     	;# 
  2234  019C                     	;# 
  2235  020C                     	;# 
  2236  020C                     	;# 
  2237  020D                     	;# 
  2238  020E                     	;# 
  2239  020F                     	;# 
  2240  020F                     	;# 
  2241  0210                     	;# 
  2242  0210                     	;# 
  2243  0211                     	;# 
  2244  0211                     	;# 
  2245  0212                     	;# 
  2246  0212                     	;# 
  2247  0213                     	;# 
  2248  0214                     	;# 
  2249  0215                     	;# 
  2250  0215                     	;# 
  2251  0216                     	;# 
  2252  0216                     	;# 
  2253  0217                     	;# 
  2254  0217                     	;# 
  2255  0218                     	;# 
  2256  0218                     	;# 
  2257  0219                     	;# 
  2258  021A                     	;# 
  2259  021B                     	;# 
  2260  021B                     	;# 
  2261  021C                     	;# 
  2262  021C                     	;# 
  2263  021D                     	;# 
  2264  021D                     	;# 
  2265  021E                     	;# 
  2266  021F                     	;# 
  2267  028C                     	;# 
  2268  028C                     	;# 
  2269  028D                     	;# 
  2270  028D                     	;# 
  2271  028E                     	;# 
  2272  028F                     	;# 
  2273  0290                     	;# 
  2274  0290                     	;# 
  2275  0291                     	;# 
  2276  0292                     	;# 
  2277  0292                     	;# 
  2278  0293                     	;# 
  2279  0293                     	;# 
  2280  0294                     	;# 
  2281  0295                     	;# 
  2282  0296                     	;# 
  2283  0296                     	;# 
  2284  0297                     	;# 
  2285  0298                     	;# 
  2286  0298                     	;# 
  2287  0299                     	;# 
  2288  0299                     	;# 
  2289  029A                     	;# 
  2290  029B                     	;# 
  2291  029C                     	;# 
  2292  029C                     	;# 
  2293  029D                     	;# 
  2294  030C                     	;# 
  2295  030C                     	;# 
  2296  030D                     	;# 
  2297  030E                     	;# 
  2298  030F                     	;# 
  2299  0310                     	;# 
  2300  0310                     	;# 
  2301  0311                     	;# 
  2302  0312                     	;# 
  2303  0313                     	;# 
  2304  0314                     	;# 
  2305  0314                     	;# 
  2306  0315                     	;# 
  2307  0316                     	;# 
  2308  0317                     	;# 
  2309  0318                     	;# 
  2310  0318                     	;# 
  2311  0319                     	;# 
  2312  031A                     	;# 
  2313  031B                     	;# 
  2314  031C                     	;# 
  2315  031C                     	;# 
  2316  031D                     	;# 
  2317  031E                     	;# 
  2318  031F                     	;# 
  2319  038C                     	;# 
  2320  038C                     	;# 
  2321  038D                     	;# 
  2322  038E                     	;# 
  2323  0390                     	;# 
  2324  0390                     	;# 
  2325  0391                     	;# 
  2326  0392                     	;# 
  2327  040C                     	;# 
  2328  040D                     	;# 
  2329  040E                     	;# 
  2330  040F                     	;# 
  2331  0410                     	;# 
  2332  0411                     	;# 
  2333  0416                     	;# 
  2334  0416                     	;# 
  2335  0417                     	;# 
  2336  0418                     	;# 
  2337  0418                     	;# 
  2338  0419                     	;# 
  2339  041A                     	;# 
  2340  041A                     	;# 
  2341  041B                     	;# 
  2342  041C                     	;# 
  2343  041C                     	;# 
  2344  041D                     	;# 
  2345  041E                     	;# 
  2346  041F                     	;# 
  2347  048C                     	;# 
  2348  048C                     	;# 
  2349  048D                     	;# 
  2350  048E                     	;# 
  2351  048F                     	;# 
  2352  048F                     	;# 
  2353  0490                     	;# 
  2354  0491                     	;# 
  2355  0492                     	;# 
  2356  0492                     	;# 
  2357  0493                     	;# 
  2358  0494                     	;# 
  2359  0495                     	;# 
  2360  0495                     	;# 
  2361  0496                     	;# 
  2362  0497                     	;# 
  2363  0498                     	;# 
  2364  0499                     	;# 
  2365  049A                     	;# 
  2366  049B                     	;# 
  2367  049C                     	;# 
  2368  049D                     	;# 
  2369  050C                     	;# 
  2370  050C                     	;# 
  2371  050D                     	;# 
  2372  050E                     	;# 
  2373  050F                     	;# 
  2374  050F                     	;# 
  2375  0510                     	;# 
  2376  0511                     	;# 
  2377  0512                     	;# 
  2378  0512                     	;# 
  2379  0513                     	;# 
  2380  0514                     	;# 
  2381  0515                     	;# 
  2382  0515                     	;# 
  2383  0516                     	;# 
  2384  0517                     	;# 
  2385  0518                     	;# 
  2386  0519                     	;# 
  2387  051A                     	;# 
  2388  051B                     	;# 
  2389  051C                     	;# 
  2390  051D                     	;# 
  2391  058C                     	;# 
  2392  058C                     	;# 
  2393  058D                     	;# 
  2394  058E                     	;# 
  2395  058F                     	;# 
  2396  058F                     	;# 
  2397  0590                     	;# 
  2398  0591                     	;# 
  2399  0592                     	;# 
  2400  0593                     	;# 
  2401  060C                     	;# 
  2402  060D                     	;# 
  2403  060E                     	;# 
  2404  060F                     	;# 
  2405  0610                     	;# 
  2406  0611                     	;# 
  2407  0612                     	;# 
  2408  0613                     	;# 
  2409  0614                     	;# 
  2410  0616                     	;# 
  2411  0617                     	;# 
  2412  0618                     	;# 
  2413  0619                     	;# 
  2414  061A                     	;# 
  2415  061B                     	;# 
  2416  061C                     	;# 
  2417  061D                     	;# 
  2418  061E                     	;# 
  2419  068C                     	;# 
  2420  068D                     	;# 
  2421  068E                     	;# 
  2422  068F                     	;# 
  2423  0690                     	;# 
  2424  0691                     	;# 
  2425  0692                     	;# 
  2426  0693                     	;# 
  2427  0694                     	;# 
  2428  070C                     	;# 
  2429  070D                     	;# 
  2430  070E                     	;# 
  2431  070F                     	;# 
  2432  0710                     	;# 
  2433  0711                     	;# 
  2434  0712                     	;# 
  2435  0713                     	;# 
  2436  0714                     	;# 
  2437  0716                     	;# 
  2438  0717                     	;# 
  2439  0718                     	;# 
  2440  0719                     	;# 
  2441  071A                     	;# 
  2442  071B                     	;# 
  2443  071C                     	;# 
  2444  071D                     	;# 
  2445  071E                     	;# 
  2446  0796                     	;# 
  2447  0797                     	;# 
  2448  0798                     	;# 
  2449  0799                     	;# 
  2450  079A                     	;# 
  2451  079B                     	;# 
  2452  080C                     	;# 
  2453  080D                     	;# 
  2454  080E                     	;# 
  2455  080F                     	;# 
  2456  0810                     	;# 
  2457  0811                     	;# 
  2458  0812                     	;# 
  2459  0813                     	;# 
  2460  0814                     	;# 
  2461  081A                     	;# 
  2462  081B                     	;# 
  2463  081C                     	;# 
  2464  081D                     	;# 
  2465  081E                     	;# 
  2466  081F                     	;# 
  2467  088C                     	;# 
  2468  088D                     	;# 
  2469  088E                     	;# 
  2470  088F                     	;# 
  2471  0890                     	;# 
  2472  0891                     	;# 
  2473  0892                     	;# 
  2474  0893                     	;# 
  2475  0895                     	;# 
  2476  0896                     	;# 
  2477  0897                     	;# 
  2478  0898                     	;# 
  2479  0899                     	;# 
  2480  089A                     	;# 
  2481  089B                     	;# 
  2482  090C                     	;# 
  2483  090E                     	;# 
  2484  090F                     	;# 
  2485  091F                     	;# 
  2486  091F                     	;# 
  2487  098F                     	;# 
  2488  098F                     	;# 
  2489  0990                     	;# 
  2490  0991                     	;# 
  2491  0992                     	;# 
  2492  0993                     	;# 
  2493  0994                     	;# 
  2494  0995                     	;# 
  2495  0996                     	;# 
  2496  0997                     	;# 
  2497  0E0F                     	;# 
  2498  0E10                     	;# 
  2499  0E11                     	;# 
  2500  0E12                     	;# 
  2501  0E13                     	;# 
  2502  0E14                     	;# 
  2503  0E15                     	;# 
  2504  0E16                     	;# 
  2505  0E17                     	;# 
  2506  0E18                     	;# 
  2507  0E19                     	;# 
  2508  0E1A                     	;# 
  2509  0E1B                     	;# 
  2510  0E1C                     	;# 
  2511  0E1D                     	;# 
  2512  0E1E                     	;# 
  2513  0E1F                     	;# 
  2514  0E20                     	;# 
  2515  0E21                     	;# 
  2516  0E22                     	;# 
  2517  0E23                     	;# 
  2518  0E24                     	;# 
  2519  0E25                     	;# 
  2520  0E26                     	;# 
  2521  0E27                     	;# 
  2522  0E28                     	;# 
  2523  0E29                     	;# 
  2524  0E2A                     	;# 
  2525  0E2B                     	;# 
  2526  0E2C                     	;# 
  2527  0E2D                     	;# 
  2528  0E2E                     	;# 
  2529  0E2F                     	;# 
  2530  0E30                     	;# 
  2531  0E31                     	;# 
  2532  0E32                     	;# 
  2533  0E33                     	;# 
  2534  0E34                     	;# 
  2535  0E35                     	;# 
  2536  0E36                     	;# 
  2537  0E37                     	;# 
  2538  0E8F                     	;# 
  2539  0E90                     	;# 
  2540  0E91                     	;# 
  2541  0E92                     	;# 
  2542  0E93                     	;# 
  2543  0E94                     	;# 
  2544  0E95                     	;# 
  2545  0E96                     	;# 
  2546  0E97                     	;# 
  2547  0E9C                     	;# 
  2548  0E9D                     	;# 
  2549  0E9E                     	;# 
  2550  0EA1                     	;# 
  2551  0EA2                     	;# 
  2552  0EA3                     	;# 
  2553  0EA4                     	;# 
  2554  0EA5                     	;# 
  2555  0EA9                     	;# 
  2556  0EAA                     	;# 
  2557  0EAB                     	;# 
  2558  0EAC                     	;# 
  2559  0EB1                     	;# 
  2560  0EB2                     	;# 
  2561  0EB3                     	;# 
  2562  0EB8                     	;# 
  2563  0EB9                     	;# 
  2564  0EBA                     	;# 
  2565  0EBB                     	;# 
  2566  0EBC                     	;# 
  2567  0EBD                     	;# 
  2568  0EBE                     	;# 
  2569  0EC3                     	;# 
  2570  0EC5                     	;# 
  2571  0EC6                     	;# 
  2572  0EC7                     	;# 
  2573  0EC8                     	;# 
  2574  0EC9                     	;# 
  2575  0ECA                     	;# 
  2576  0ECB                     	;# 
  2577  0ECC                     	;# 
  2578  0F10                     	;# 
  2579  0F11                     	;# 
  2580  0F12                     	;# 
  2581  0F13                     	;# 
  2582  0F14                     	;# 
  2583  0F15                     	;# 
  2584  0F16                     	;# 
  2585  0F17                     	;# 
  2586  0F18                     	;# 
  2587  0F19                     	;# 
  2588  0F1A                     	;# 
  2589  0F1B                     	;# 
  2590  0F1C                     	;# 
  2591  0F1D                     	;# 
  2592  0F1E                     	;# 
  2593  0F1F                     	;# 
  2594  0F20                     	;# 
  2595  0F21                     	;# 
  2596  0F22                     	;# 
  2597  0F23                     	;# 
  2598  0F24                     	;# 
  2599  0F25                     	;# 
  2600  0F26                     	;# 
  2601  0F27                     	;# 
  2602  0F38                     	;# 
  2603  0F39                     	;# 
  2604  0F3A                     	;# 
  2605  0F3B                     	;# 
  2606  0F3C                     	;# 
  2607  0F3D                     	;# 
  2608  0F3E                     	;# 
  2609  0F3F                     	;# 
  2610  0F40                     	;# 
  2611  0F41                     	;# 
  2612  0F43                     	;# 
  2613  0F44                     	;# 
  2614  0F45                     	;# 
  2615  0F46                     	;# 
  2616  0F47                     	;# 
  2617  0F48                     	;# 
  2618  0F49                     	;# 
  2619  0F4A                     	;# 
  2620  0F4B                     	;# 
  2621  0F4C                     	;# 
  2622  0F4E                     	;# 
  2623  0F4F                     	;# 
  2624  0F50                     	;# 
  2625  0F51                     	;# 
  2626  0F52                     	;# 
  2627  0F53                     	;# 
  2628  0F54                     	;# 
  2629  0F55                     	;# 
  2630  0F56                     	;# 
  2631  0F57                     	;# 
  2632  0F65                     	;# 
  2633  0F68                     	;# 
  2634  0F69                     	;# 
  2635  0F6A                     	;# 
  2636  0F6B                     	;# 
  2637  0FE4                     	;# 
  2638  0FE5                     	;# 
  2639  0FE6                     	;# 
  2640  0FE7                     	;# 
  2641  0FE8                     	;# 
  2642  0FE9                     	;# 
  2643  0FEA                     	;# 
  2644  0FEB                     	;# 
  2645  0FED                     	;# 
  2646  0FEE                     	;# 
  2647  0FEF                     	;# 
  2648  0017                     _LATBbits	set	23
  2649  0012                     _TRISBbits	set	18
  2650  0013                     _TRISC	set	19
  2651  0012                     _TRISB	set	18
  2652  0011                     _TRISA	set	17
  2653  0018                     _LATC	set	24
  2654  0017                     _LATB	set	23
  2655  0016                     _LATA	set	22
  2656  079B                     _PMD5	set	1947
  2657  079A                     _PMD4	set	1946
  2658  0799                     _PMD3	set	1945
  2659  0798                     _PMD2	set	1944
  2660  0797                     _PMD1	set	1943
  2661  0796                     _PMD0	set	1942
  2662  0892                     _OSCTUNE	set	2194
  2663  0893                     _OSCFRQ	set	2195
  2664  0891                     _OSCEN	set	2193
  2665  088F                     _OSCCON3	set	2191
  2666  088D                     _OSCCON1	set	2189
  2667  0F68                     _INLVLE	set	3944
  2668  0F52                     _INLVLC	set	3922
  2669  0F47                     _INLVLB	set	3911
  2670  0F3C                     _INLVLA	set	3900
  2671  0F51                     _SLRCONC	set	3921
  2672  0F46                     _SLRCONB	set	3910
  2673  0F3B                     _SLRCONA	set	3899
  2674  0F50                     _ODCONC	set	3920
  2675  0F45                     _ODCONB	set	3909
  2676  0F3A                     _ODCONA	set	3898
  2677  0F4F                     _WPUC	set	3919
  2678  0F39                     _WPUA	set	3897
  2679  0F44                     _WPUB	set	3908
  2680  0F65                     _WPUE	set	3941
  2681  0F38                     _ANSELA	set	3896
  2682  0F43                     _ANSELB	set	3907
  2683  0F4E                     _ANSELC	set	3918
  2684                           
  2685                           	psect	stringtext1
  2686  0800                     __pstringtext1:
  2687  0800                     STR_1:
  2688  0800  344E               	retlw	78	;'N'
  2689  0801  346F               	retlw	111	;'o'
  2690  0802  3420               	retlw	32	;' '
  2691  0803  3473               	retlw	115	;'s'
  2692  0804  3465               	retlw	101	;'e'
  2693  0805  3420               	retlw	32	;' '
  2694  0806  3470               	retlw	112	;'p'
  2695  0807  3475               	retlw	117	;'u'
  2696  0808  3465               	retlw	101	;'e'
  2697  0809  3464               	retlw	100	;'d'
  2698  080A  3465               	retlw	101	;'e'
  2699  080B  3420               	retlw	32	;' '
  2700  080C  3467               	retlw	103	;'g'
  2701  080D  346F               	retlw	111	;'o'
  2702  080E  3472               	retlw	114	;'r'
  2703  080F  3464               	retlw	100	;'d'
  2704  0810  346F               	retlw	111	;'o'
  2705  0811  3400               	retlw	0
  2706                           
  2707                           	psect	stringtext2
  2708  0000                     __pstringtext2:
  2709                           
  2710                           	psect	cinit
  2711  07FD                     start_initialization:	
  2712                           ; #config settings
  2713                           
  2714  07FD                     __initialization:
  2715  07FD                     end_of_initialization:	
  2716                           ;End of C runtime variable initialization code
  2717                           
  2718  07FD                     __end_of__initialization:
  2719  07FD  0020               	movlb	0
  2720  07FE  3187  2F2B         	ljmp	_main	;jump to C main() function
  2721                           
  2722                           	psect	cstackCOMMON
  2723  0070                     __pcstackCOMMON:
  2724  0070                     ?_PMD_Initialize:
  2725  0070                     ??_PMD_Initialize:	
  2726                           ; 1 bytes @ 0x0
  2727                           
  2728  0070                     ?_PIN_MANAGER_Initialize:	
  2729                           ; 1 bytes @ 0x0
  2730                           
  2731  0070                     ??_PIN_MANAGER_Initialize:	
  2732                           ; 1 bytes @ 0x0
  2733                           
  2734  0070                     ?_OSCILLATOR_Initialize:	
  2735                           ; 1 bytes @ 0x0
  2736                           
  2737  0070                     ??_OSCILLATOR_Initialize:	
  2738                           ; 1 bytes @ 0x0
  2739                           
  2740  0070                     ?_lcd_init:	
  2741                           ; 1 bytes @ 0x0
  2742                           
  2743  0070                     ?_lcd_home:	
  2744                           ; 1 bytes @ 0x0
  2745                           
  2746  0070                     ?_lcd_cmd:	
  2747                           ; 1 bytes @ 0x0
  2748                           
  2749  0070                     ??_lcd_cmd:	
  2750                           ; 1 bytes @ 0x0
  2751                           
  2752  0070                     ?_lcd_clear:	
  2753                           ; 1 bytes @ 0x0
  2754                           
  2755  0070                     ?_en_pulse:	
  2756                           ; 1 bytes @ 0x0
  2757                           
  2758  0070                     ??_en_pulse:	
  2759                           ; 1 bytes @ 0x0
  2760                           
  2761  0070                     ?_SYSTEM_Initialize:	
  2762                           ; 1 bytes @ 0x0
  2763                           
  2764  0070                     ??_SYSTEM_Initialize:	
  2765                           ; 1 bytes @ 0x0
  2766                           
  2767  0070                     ?_main:	
  2768                           ; 1 bytes @ 0x0
  2769                           
  2770  0070                     ?_lcd_putc:	
  2771                           ; 1 bytes @ 0x0
  2772                           
  2773  0070                     ??_lcd_putc:	
  2774                           ; 1 bytes @ 0x0
  2775                           
  2776                           
  2777                           ; 1 bytes @ 0x0
  2778  0070                     	ds	1
  2779  0071                     lcd_putc@c:
  2780  0071                     lcd_cmd@data:	
  2781                           ; 1 bytes @ 0x1
  2782                           
  2783                           
  2784                           ; 1 bytes @ 0x1
  2785  0071                     	ds	1
  2786  0072                     ??_lcd_init:
  2787  0072                     ??_lcd_home:	
  2788                           ; 1 bytes @ 0x2
  2789                           
  2790  0072                     ?_lcd_print:	
  2791                           ; 1 bytes @ 0x2
  2792                           
  2793  0072                     ??_lcd_clear:	
  2794                           ; 1 bytes @ 0x2
  2795                           
  2796  0072                     lcd_print@data:	
  2797                           ; 1 bytes @ 0x2
  2798                           
  2799                           
  2800                           ; 2 bytes @ 0x2
  2801  0072                     	ds	2
  2802  0074                     ??_lcd_print:
  2803                           
  2804                           ; 1 bytes @ 0x4
  2805  0074                     	ds	1
  2806  0075                     ??_main:
  2807                           
  2808                           	psect	maintext
  2809  072B                     __pmaintext:	
  2810                           ; 1 bytes @ 0x5
  2811 ;;
  2812 ;;Main: autosize = 0, tempsize = 0, incstack = 0, save=0
  2813 ;;
  2814 ;; *************** function _main *****************
  2815 ;; Defined at:
  2816 ;;		line 50 in file "main.c"
  2817 ;; Parameters:    Size  Location     Type
  2818 ;;		None
  2819 ;; Auto vars:     Size  Location     Type
  2820 ;;		None
  2821 ;; Return value:  Size  Location     Type
  2822 ;;                  1    wreg      void 
  2823 ;; Registers used:
  2824 ;;		wreg, fsr0l, fsr0h, status,2, status,0, pclath, cstack
  2825 ;; Tracked objects:
  2826 ;;		On entry : B1F/0
  2827 ;;		On exit  : 0/0
  2828 ;;		Unchanged: 0/0
  2829 ;; Data sizes:     COMMON   BANK0   BANK1   BANK2   BANK3   BANK4   BANK5   BANK6   BANK7   BANK8   BANK9  BANK10  BANK1
      +1  BANK12
  2830 ;;      Params:         0       0       0       0       0       0       0       0       0       0       0       0       
      +0       0
  2831 ;;      Locals:         0       0       0       0       0       0       0       0       0       0       0       0       
      +0       0
  2832 ;;      Temps:          0       0       0       0       0       0       0       0       0       0       0       0       
      +0       0
  2833 ;;      Totals:         0       0       0       0       0       0       0       0       0       0       0       0       
      +0       0
  2834 ;;Total ram usage:        0 bytes
  2835 ;; Hardware stack levels required when called: 4
  2836 ;; This function calls:
  2837 ;;		_SYSTEM_Initialize
  2838 ;;		_lcd_home
  2839 ;;		_lcd_init
  2840 ;;		_lcd_print
  2841 ;; This function is called by:
  2842 ;;		Startup code after reset
  2843 ;; This function uses a non-reentrant model
  2844 ;;
  2845                           
  2846                           
  2847                           ;psect for function _main
  2848  072B                     _main:
  2849  072B                     l938:	
  2850                           ;incstack = 0
  2851                           ; Regs used in _main: [wreg-fsr0h+status,2+status,0+pclath+cstack]
  2852                           
  2853                           
  2854                           ;main.c: 53:     SYSTEM_Initialize();
  2855  072B  3187  2721  3187   	fcall	_SYSTEM_Initialize
  2856                           
  2857                           ;main.c: 55:     lcd_init();
  2858  072E  3187  27B4  3187   	fcall	_lcd_init
  2859                           
  2860                           ;main.c: 56:     lcd_home();
  2861  0731  3186  26FF  3187   	fcall	_lcd_home
  2862  0734                     l940:
  2863                           
  2864                           ;main.c: 57:     lcd_print("No se puede gordo");
  2865  0734  3000               	movlw	low (STR_1| (0+32768))
  2866  0735  00F2               	movwf	lcd_print@data
  2867  0736  3088               	movlw	high (STR_1| (0+32768))
  2868  0737  00F3               	movwf	lcd_print@data+1
  2869  0738  3187  273E  3187   	fcall	_lcd_print
  2870  073B                     l102:	
  2871                           ;main.c: 58:     while (1)
  2872                           
  2873  073B                     l103:	
  2874                           ;main.c: 59:     {;main.c: 61:     }
  2875                           
  2876  073B  2F3B               	goto	l102
  2877  073C  3180  2802         	ljmp	start
  2878  073E                     __end_of_main:
  2879                           
  2880                           	psect	text1
  2881  073E                     __ptext1:	
  2882 ;; *************** function _lcd_print *****************
  2883 ;; Defined at:
  2884 ;;		line 106 in file "lcd.c"
  2885 ;; Parameters:    Size  Location     Type
  2886 ;;  data            2    2[COMMON] PTR unsigned char 
  2887 ;;		 -> STR_1(18), 
  2888 ;; Auto vars:     Size  Location     Type
  2889 ;;		None
  2890 ;; Return value:  Size  Location     Type
  2891 ;;                  1    wreg      void 
  2892 ;; Registers used:
  2893 ;;		wreg, fsr0l, fsr0h, status,2, status,0, pclath, cstack
  2894 ;; Tracked objects:
  2895 ;;		On entry : 0/0
  2896 ;;		On exit  : 0/0
  2897 ;;		Unchanged: 0/0
  2898 ;; Data sizes:     COMMON   BANK0   BANK1   BANK2   BANK3   BANK4   BANK5   BANK6   BANK7   BANK8   BANK9  BANK10  BANK1
      +1  BANK12
  2899 ;;      Params:         2       0       0       0       0       0       0       0       0       0       0       0       
      +0       0
  2900 ;;      Locals:         0       0       0       0       0       0       0       0       0       0       0       0       
      +0       0
  2901 ;;      Temps:          1       0       0       0       0       0       0       0       0       0       0       0       
      +0       0
  2902 ;;      Totals:         3       0       0       0       0       0       0       0       0       0       0       0       
      +0       0
  2903 ;;Total ram usage:        3 bytes
  2904 ;; Hardware stack levels used: 1
  2905 ;; Hardware stack levels required when called: 2
  2906 ;; This function calls:
  2907 ;;		_lcd_putc
  2908 ;; This function is called by:
  2909 ;;		_main
  2910 ;; This function uses a non-reentrant model
  2911 ;;
  2912                           
  2913                           
  2914                           ;psect for function _lcd_print
  2915  073E                     _lcd_print:
  2916  073E                     l930:	
  2917                           ;incstack = 0
  2918                           ; Regs used in _lcd_print: [wreg-fsr0h+status,2+status,0+pclath+cstack]
  2919                           
  2920                           
  2921                           ;lcd.c: 107:     while (*data)
  2922  073E  2F4B               	goto	l936
  2923  073F                     l932:
  2924                           
  2925                           ;lcd.c: 108:     {;lcd.c: 109:         lcd_putc(*data);
  2926  073F  0872               	movf	lcd_print@data,w
  2927  0740  0084               	movwf	4
  2928  0741  0873               	movf	lcd_print@data+1,w
  2929  0742  0085               	movwf	5
  2930  0743  0800               	movf	0,w	;code access
  2931  0744  3187  2771  3187   	fcall	_lcd_putc
  2932  0747                     l934:
  2933                           
  2934                           ;lcd.c: 110:         data++;
  2935  0747  3001               	movlw	1
  2936  0748  07F2               	addwf	lcd_print@data,f
  2937  0749  3000               	movlw	0
  2938  074A  3DF3               	addwfc	lcd_print@data+1,f
  2939  074B                     l936:
  2940                           
  2941                           ;lcd.c: 107:     while (*data)
  2942  074B  0872               	movf	lcd_print@data,w
  2943  074C  0084               	movwf	4
  2944  074D  0873               	movf	lcd_print@data+1,w
  2945  074E  0085               	movwf	5
  2946  074F  0012               	moviw fsr0++
  2947  0750  1D03               	btfss	3,2
  2948  0751  2F53               	goto	u61
  2949  0752  2F54               	goto	u60
  2950  0753                     u61:
  2951  0753  2F3F               	goto	l932
  2952  0754                     u60:
  2953  0754                     l139:
  2954  0754  0008               	return
  2955  0755                     __end_of_lcd_print:
  2956                           
  2957                           	psect	text2
  2958  0771                     __ptext2:	
  2959 ;; *************** function _lcd_putc *****************
  2960 ;; Defined at:
  2961 ;;		line 62 in file "lcd.c"
  2962 ;; Parameters:    Size  Location     Type
  2963 ;;  c               1    wreg     unsigned char 
  2964 ;; Auto vars:     Size  Location     Type
  2965 ;;  c               1    1[COMMON] unsigned char 
  2966 ;; Return value:  Size  Location     Type
  2967 ;;                  1    wreg      void 
  2968 ;; Registers used:
  2969 ;;		wreg, status,2, status,0, pclath, cstack
  2970 ;; Tracked objects:
  2971 ;;		On entry : 0/0
  2972 ;;		On exit  : 0/0
  2973 ;;		Unchanged: 0/0
  2974 ;; Data sizes:     COMMON   BANK0   BANK1   BANK2   BANK3   BANK4   BANK5   BANK6   BANK7   BANK8   BANK9  BANK10  BANK1
      +1  BANK12
  2975 ;;      Params:         0       0       0       0       0       0       0       0       0       0       0       0       
      +0       0
  2976 ;;      Locals:         1       0       0       0       0       0       0       0       0       0       0       0       
      +0       0
  2977 ;;      Temps:          1       0       0       0       0       0       0       0       0       0       0       0       
      +0       0
  2978 ;;      Totals:         2       0       0       0       0       0       0       0       0       0       0       0       
      +0       0
  2979 ;;Total ram usage:        2 bytes
  2980 ;; Hardware stack levels used: 1
  2981 ;; Hardware stack levels required when called: 1
  2982 ;; This function calls:
  2983 ;;		_en_pulse
  2984 ;; This function is called by:
  2985 ;;		_lcd_print
  2986 ;;		_lcd_save_char
  2987 ;; This function uses a non-reentrant model
  2988 ;;
  2989                           
  2990                           
  2991                           ;psect for function _lcd_putc
  2992  0771                     _lcd_putc:
  2993                           
  2994                           ;incstack = 0
  2995                           ; Regs used in _lcd_putc: [wreg+status,2+status,0+pclath+cstack]
  2996                           ;lcd_putc@c stored from wreg
  2997  0771  00F1               	movwf	lcd_putc@c
  2998  0772                     l822:
  2999                           
  3000                           ;lcd.c: 63:     LATC = 0;
  3001  0772  0020               	movlb	0	; select bank0
  3002  0773  0198               	clrf	24	;volatile
  3003  0774                     l824:
  3004                           
  3005                           ;lcd.c: 64:     LATBbits.LATB4 = 1;
  3006  0774  1617               	bsf	23,4	;volatile
  3007  0775                     l826:
  3008                           
  3009                           ;lcd.c: 65:     LATC = c & 0xF0;
  3010  0775  0871               	movf	lcd_putc@c,w
  3011  0776  39F0               	andlw	240
  3012  0777  0098               	movwf	24	;volatile
  3013  0778                     l828:
  3014                           
  3015                           ;lcd.c: 66:     en_pulse();
  3016  0778  3187  2709  3187   	fcall	_en_pulse
  3017  077B                     l830:
  3018                           
  3019                           ;lcd.c: 67:     LATC = ((c & 0x0F) << 4);
  3020  077B  0871               	movf	lcd_putc@c,w
  3021  077C  390F               	andlw	15
  3022  077D  00F0               	movwf	??_lcd_putc
  3023  077E  3003               	movlw	3
  3024  077F                     u25:
  3025  077F  35F0               	lslf	??_lcd_putc,f
  3026  0780  3EFF               	addlw	-1
  3027  0781  1D03               	skipz
  3028  0782  2F7F               	goto	u25
  3029  0783  3570               	lslf	??_lcd_putc,w
  3030  0784  0020               	movlb	0	; select bank0
  3031  0785  0098               	movwf	24	;volatile
  3032  0786                     l832:
  3033                           
  3034                           ;lcd.c: 68:     en_pulse();
  3035  0786  3187  2709  3187   	fcall	_en_pulse
  3036  0789                     l834:
  3037                           
  3038                           ;lcd.c: 69:     _delay((unsigned long)((50)*(1000000/4000000.0)));
  3039  0789  3004               	movlw	4
  3040  078A                     u77:
  3041  078A  0B89               	decfsz	9,f
  3042  078B  2F8A               	goto	u77
  3043  078C                     l127:
  3044  078C  0008               	return
  3045  078D                     __end_of_lcd_putc:
  3046                           
  3047                           	psect	text3
  3048  07B4                     __ptext3:	
  3049 ;; *************** function _lcd_init *****************
  3050 ;; Defined at:
  3051 ;;		line 12 in file "lcd.c"
  3052 ;; Parameters:    Size  Location     Type
  3053 ;;		None
  3054 ;; Auto vars:     Size  Location     Type
  3055 ;;		None
  3056 ;; Return value:  Size  Location     Type
  3057 ;;                  1    wreg      void 
  3058 ;; Registers used:
  3059 ;;		wreg, status,2, status,0, pclath, cstack
  3060 ;; Tracked objects:
  3061 ;;		On entry : 0/0
  3062 ;;		On exit  : 0/0
  3063 ;;		Unchanged: 0/0
  3064 ;; Data sizes:     COMMON   BANK0   BANK1   BANK2   BANK3   BANK4   BANK5   BANK6   BANK7   BANK8   BANK9  BANK10  BANK1
      +1  BANK12
  3065 ;;      Params:         0       0       0       0       0       0       0       0       0       0       0       0       
      +0       0
  3066 ;;      Locals:         0       0       0       0       0       0       0       0       0       0       0       0       
      +0       0
  3067 ;;      Temps:          1       0       0       0       0       0       0       0       0       0       0       0       
      +0       0
  3068 ;;      Totals:         1       0       0       0       0       0       0       0       0       0       0       0       
      +0       0
  3069 ;;Total ram usage:        1 bytes
  3070 ;; Hardware stack levels used: 1
  3071 ;; Hardware stack levels required when called: 3
  3072 ;; This function calls:
  3073 ;;		_lcd_clear
  3074 ;;		_lcd_cmd
  3075 ;; This function is called by:
  3076 ;;		_main
  3077 ;; This function uses a non-reentrant model
  3078 ;;
  3079                           
  3080                           
  3081                           ;psect for function _lcd_init
  3082  07B4                     _lcd_init:
  3083  07B4                     l842:	
  3084                           ;incstack = 0
  3085                           ; Regs used in _lcd_init: [wreg+status,2+status,0+pclath+cstack]
  3086                           
  3087                           
  3088                           ;lcd.c: 14:     TRISBbits.TRISB4 = 0;
  3089  07B4  0020               	movlb	0	; select bank0
  3090  07B5  1212               	bcf	18,4	;volatile
  3091                           
  3092                           ;lcd.c: 15:     TRISBbits.TRISB5 = 0;
  3093  07B6  1292               	bcf	18,5	;volatile
  3094  07B7                     l844:
  3095                           
  3096                           ;lcd.c: 16:     TRISC = 0x00;
  3097  07B7  0193               	clrf	19	;volatile
  3098  07B8                     l846:
  3099                           
  3100                           ;lcd.c: 17:     LATBbits.LATB4 = 0;
  3101  07B8  1217               	bcf	23,4	;volatile
  3102  07B9                     l848:
  3103                           
  3104                           ;lcd.c: 18:     LATBbits.LATB5 = 0;
  3105  07B9  1297               	bcf	23,5	;volatile
  3106                           
  3107                           ;lcd.c: 19:     LATC = 0;
  3108  07BA  0198               	clrf	24	;volatile
  3109  07BB                     l850:
  3110                           
  3111                           ;lcd.c: 21:     _delay((unsigned long)((120)*(1000000/4000.0)));
  3112  07BB  3027               	movlw	39
  3113  07BC  00F2               	movwf	??_lcd_init
  3114  07BD  30F5               	movlw	245
  3115  07BE                     u87:
  3116  07BE  0B89               	decfsz	9,f
  3117  07BF  2FBE               	goto	u87
  3118  07C0  0BF2               	decfsz	??_lcd_init,f
  3119  07C1  2FBE               	goto	u87
  3120  07C2  0000               	nop
  3121  07C3                     l852:
  3122                           
  3123                           ;lcd.c: 25:     lcd_cmd(0x30);
  3124  07C3  3030               	movlw	48
  3125  07C4  3187  2755  3187   	fcall	_lcd_cmd
  3126  07C7                     l854:
  3127                           
  3128                           ;lcd.c: 26:     _delay((unsigned long)((5)*(1000000/4000.0)));
  3129  07C7  30FA               	movlw	250
  3130  07C8                     u97:
  3131  07C8  3200               	nop2
  3132  07C9  0B89               	decfsz	9,f
  3133  07CA  2FC8               	goto	u97
  3134  07CB                     l856:
  3135                           
  3136                           ;lcd.c: 27:     lcd_cmd(0x30);
  3137  07CB  3030               	movlw	48
  3138  07CC  3187  2755  3187   	fcall	_lcd_cmd
  3139  07CF                     l858:
  3140                           
  3141                           ;lcd.c: 28:     _delay((unsigned long)((120)*(1000000/4000000.0)));
  3142  07CF  300A               	movlw	10
  3143  07D0                     u107:
  3144  07D0  0B89               	decfsz	9,f
  3145  07D1  2FD0               	goto	u107
  3146  07D2                     l860:
  3147                           
  3148                           ;lcd.c: 29:     lcd_cmd(0x32);
  3149  07D2  3032               	movlw	50
  3150  07D3  3187  2755  3187   	fcall	_lcd_cmd
  3151  07D6                     l862:
  3152                           
  3153                           ;lcd.c: 30:     _delay((unsigned long)((120)*(1000000/4000000.0)));
  3154  07D6  300A               	movlw	10
  3155  07D7                     u117:
  3156  07D7  0B89               	decfsz	9,f
  3157  07D8  2FD7               	goto	u117
  3158  07D9                     l864:
  3159                           
  3160                           ;lcd.c: 34:     lcd_cmd(0b00101100 & 0b00111000);
  3161  07D9  3028               	movlw	40
  3162  07DA  3187  2755  3187   	fcall	_lcd_cmd
  3163  07DD                     l866:
  3164                           
  3165                           ;lcd.c: 35:     _delay((unsigned long)((60)*(1000000/4000000.0)));
  3166  07DD  3005               	movlw	5
  3167  07DE                     u127:
  3168  07DE  0B89               	decfsz	9,f
  3169  07DF  2FDE               	goto	u127
  3170  07E0                     l868:
  3171                           
  3172                           ;lcd.c: 37:     lcd_cmd(0b00001011 & 0b00001101 & 0b00001110);
  3173  07E0  3008               	movlw	8
  3174  07E1  3187  2755  3187   	fcall	_lcd_cmd
  3175  07E4                     l870:
  3176                           
  3177                           ;lcd.c: 38:     _delay((unsigned long)((60)*(1000000/4000000.0)));
  3178  07E4  3005               	movlw	5
  3179  07E5                     u137:
  3180  07E5  0B89               	decfsz	9,f
  3181  07E6  2FE5               	goto	u137
  3182  07E7                     l872:
  3183                           
  3184                           ;lcd.c: 40:     lcd_clear();
  3185  07E7  3187  2704  3187   	fcall	_lcd_clear
  3186  07EA                     l874:
  3187                           
  3188                           ;lcd.c: 41:     _delay((unsigned long)((4)*(1000000/4000.0)));
  3189  07EA  30C8               	movlw	200
  3190  07EB                     u147:
  3191  07EB  3200               	nop2
  3192  07EC  0B89               	decfsz	9,f
  3193  07ED  2FEB               	goto	u147
  3194  07EE                     l876:
  3195                           
  3196                           ;lcd.c: 44:     lcd_cmd(0x06);
  3197  07EE  3006               	movlw	6
  3198  07EF  3187  2755  3187   	fcall	_lcd_cmd
  3199  07F2                     l878:
  3200                           
  3201                           ;lcd.c: 45:     _delay((unsigned long)((60)*(1000000/4000000.0)));
  3202  07F2  3005               	movlw	5
  3203  07F3                     u157:
  3204  07F3  0B89               	decfsz	9,f
  3205  07F4  2FF3               	goto	u157
  3206  07F5                     l880:
  3207                           
  3208                           ;lcd.c: 48:     lcd_cmd(0b00001111 & 0b00001101 & 0b00001110);
  3209  07F5  300C               	movlw	12
  3210  07F6  3187  2755  3187   	fcall	_lcd_cmd
  3211  07F9                     l882:
  3212                           
  3213                           ;lcd.c: 49:     _delay((unsigned long)((60)*(1000000/4000000.0)));
  3214  07F9  3005               	movlw	5
  3215  07FA                     u167:
  3216  07FA  0B89               	decfsz	9,f
  3217  07FB  2FFA               	goto	u167
  3218  07FC                     l124:
  3219  07FC  0008               	return
  3220  07FD                     __end_of_lcd_init:
  3221                           
  3222                           	psect	text4
  3223  0704                     __ptext4:	
  3224 ;; *************** function _lcd_clear *****************
  3225 ;; Defined at:
  3226 ;;		line 80 in file "lcd.c"
  3227 ;; Parameters:    Size  Location     Type
  3228 ;;		None
  3229 ;; Auto vars:     Size  Location     Type
  3230 ;;		None
  3231 ;; Return value:  Size  Location     Type
  3232 ;;                  1    wreg      void 
  3233 ;; Registers used:
  3234 ;;		wreg, status,2, status,0, pclath, cstack
  3235 ;; Tracked objects:
  3236 ;;		On entry : 0/0
  3237 ;;		On exit  : 0/0
  3238 ;;		Unchanged: 0/0
  3239 ;; Data sizes:     COMMON   BANK0   BANK1   BANK2   BANK3   BANK4   BANK5   BANK6   BANK7   BANK8   BANK9  BANK10  BANK1
      +1  BANK12
  3240 ;;      Params:         0       0       0       0       0       0       0       0       0       0       0       0       
      +0       0
  3241 ;;      Locals:         0       0       0       0       0       0       0       0       0       0       0       0       
      +0       0
  3242 ;;      Temps:          0       0       0       0       0       0       0       0       0       0       0       0       
      +0       0
  3243 ;;      Totals:         0       0       0       0       0       0       0       0       0       0       0       0       
      +0       0
  3244 ;;Total ram usage:        0 bytes
  3245 ;; Hardware stack levels used: 1
  3246 ;; Hardware stack levels required when called: 2
  3247 ;; This function calls:
  3248 ;;		_lcd_cmd
  3249 ;; This function is called by:
  3250 ;;		_lcd_init
  3251 ;; This function uses a non-reentrant model
  3252 ;;
  3253                           
  3254                           
  3255                           ;psect for function _lcd_clear
  3256  0704                     _lcd_clear:
  3257  0704                     l820:	
  3258                           ;incstack = 0
  3259                           ; Regs used in _lcd_clear: [wreg+status,2+status,0+pclath+cstack]
  3260                           
  3261                           
  3262                           ;lcd.c: 81:     lcd_cmd(0x01);
  3263  0704  3001               	movlw	1
  3264  0705  3187  2755  3187   	fcall	_lcd_cmd
  3265  0708                     l130:
  3266  0708  0008               	return
  3267  0709                     __end_of_lcd_clear:
  3268                           
  3269                           	psect	text5
  3270  06FF                     __ptext5:	
  3271 ;; *************** function _lcd_home *****************
  3272 ;; Defined at:
  3273 ;;		line 91 in file "lcd.c"
  3274 ;; Parameters:    Size  Location     Type
  3275 ;;		None
  3276 ;; Auto vars:     Size  Location     Type
  3277 ;;		None
  3278 ;; Return value:  Size  Location     Type
  3279 ;;                  1    wreg      void 
  3280 ;; Registers used:
  3281 ;;		wreg, status,2, status,0, pclath, cstack
  3282 ;; Tracked objects:
  3283 ;;		On entry : 0/0
  3284 ;;		On exit  : 0/0
  3285 ;;		Unchanged: 0/0
  3286 ;; Data sizes:     COMMON   BANK0   BANK1   BANK2   BANK3   BANK4   BANK5   BANK6   BANK7   BANK8   BANK9  BANK10  BANK1
      +1  BANK12
  3287 ;;      Params:         0       0       0       0       0       0       0       0       0       0       0       0       
      +0       0
  3288 ;;      Locals:         0       0       0       0       0       0       0       0       0       0       0       0       
      +0       0
  3289 ;;      Temps:          0       0       0       0       0       0       0       0       0       0       0       0       
      +0       0
  3290 ;;      Totals:         0       0       0       0       0       0       0       0       0       0       0       0       
      +0       0
  3291 ;;Total ram usage:        0 bytes
  3292 ;; Hardware stack levels used: 1
  3293 ;; Hardware stack levels required when called: 2
  3294 ;; This function calls:
  3295 ;;		_lcd_cmd
  3296 ;; This function is called by:
  3297 ;;		_main
  3298 ;; This function uses a non-reentrant model
  3299 ;;
  3300                           
  3301                           
  3302                           ;psect for function _lcd_home
  3303  06FF                     _lcd_home:
  3304  06FF                     l884:	
  3305                           ;incstack = 0
  3306                           ; Regs used in _lcd_home: [wreg+status,2+status,0+pclath+cstack]
  3307                           
  3308                           
  3309                           ;lcd.c: 92:     lcd_cmd(0x02);
  3310  06FF  3002               	movlw	2
  3311  0700  3187  2755  3186   	fcall	_lcd_cmd
  3312  0703                     l133:
  3313  0703  0008               	return
  3314  0704                     __end_of_lcd_home:
  3315                           
  3316                           	psect	text6
  3317  0755                     __ptext6:	
  3318 ;; *************** function _lcd_cmd *****************
  3319 ;; Defined at:
  3320 ;;		line 150 in file "lcd.c"
  3321 ;; Parameters:    Size  Location     Type
  3322 ;;  data            1    wreg     unsigned char 
  3323 ;; Auto vars:     Size  Location     Type
  3324 ;;  data            1    1[COMMON] unsigned char 
  3325 ;; Return value:  Size  Location     Type
  3326 ;;                  1    wreg      void 
  3327 ;; Registers used:
  3328 ;;		wreg, status,2, status,0, pclath, cstack
  3329 ;; Tracked objects:
  3330 ;;		On entry : 0/0
  3331 ;;		On exit  : 0/0
  3332 ;;		Unchanged: 0/0
  3333 ;; Data sizes:     COMMON   BANK0   BANK1   BANK2   BANK3   BANK4   BANK5   BANK6   BANK7   BANK8   BANK9  BANK10  BANK1
      +1  BANK12
  3334 ;;      Params:         0       0       0       0       0       0       0       0       0       0       0       0       
      +0       0
  3335 ;;      Locals:         1       0       0       0       0       0       0       0       0       0       0       0       
      +0       0
  3336 ;;      Temps:          1       0       0       0       0       0       0       0       0       0       0       0       
      +0       0
  3337 ;;      Totals:         2       0       0       0       0       0       0       0       0       0       0       0       
      +0       0
  3338 ;;Total ram usage:        2 bytes
  3339 ;; Hardware stack levels used: 1
  3340 ;; Hardware stack levels required when called: 1
  3341 ;; This function calls:
  3342 ;;		_en_pulse
  3343 ;; This function is called by:
  3344 ;;		_lcd_init
  3345 ;;		_lcd_clear
  3346 ;;		_lcd_home
  3347 ;;		_lcd_goto
  3348 ;;		_lcd_save_char
  3349 ;; This function uses a non-reentrant model
  3350 ;;
  3351                           
  3352                           
  3353                           ;psect for function _lcd_cmd
  3354  0755                     _lcd_cmd:
  3355                           
  3356                           ;incstack = 0
  3357                           ; Regs used in _lcd_cmd: [wreg+status,2+status,0+pclath+cstack]
  3358                           ;lcd_cmd@data stored from wreg
  3359  0755  00F1               	movwf	lcd_cmd@data
  3360  0756                     l770:
  3361                           
  3362                           ;lcd.c: 151:     LATBbits.LATB4 = 0;
  3363  0756  0020               	movlb	0	; select bank0
  3364  0757  1217               	bcf	23,4	;volatile
  3365  0758                     l772:
  3366                           
  3367                           ;lcd.c: 152:     LATC = data & 0xF0;
  3368  0758  0871               	movf	lcd_cmd@data,w
  3369  0759  39F0               	andlw	240
  3370  075A  0098               	movwf	24	;volatile
  3371  075B                     l774:
  3372                           
  3373                           ;lcd.c: 153:     en_pulse();
  3374  075B  3187  2709  3187   	fcall	_en_pulse
  3375  075E                     l776:
  3376                           
  3377                           ;lcd.c: 154:     LATC = ((data & 0x0F) << 4);
  3378  075E  0871               	movf	lcd_cmd@data,w
  3379  075F  390F               	andlw	15
  3380  0760  00F0               	movwf	??_lcd_cmd
  3381  0761  3003               	movlw	3
  3382  0762                     u15:
  3383  0762  35F0               	lslf	??_lcd_cmd,f
  3384  0763  3EFF               	addlw	-1
  3385  0764  1D03               	skipz
  3386  0765  2F62               	goto	u15
  3387  0766  3570               	lslf	??_lcd_cmd,w
  3388  0767  0020               	movlb	0	; select bank0
  3389  0768  0098               	movwf	24	;volatile
  3390  0769                     l778:
  3391                           
  3392                           ;lcd.c: 155:     en_pulse();
  3393  0769  3187  2709  3187   	fcall	_en_pulse
  3394  076C                     l780:
  3395                           
  3396                           ;lcd.c: 156:     _delay((unsigned long)((2)*(1000000/4000.0)));
  3397  076C  30A6               	movlw	166
  3398  076D                     u177:
  3399  076D  0B89               	decfsz	9,f
  3400  076E  2F6D               	goto	u177
  3401  076F  3200               	nop2
  3402  0770                     l150:
  3403  0770  0008               	return
  3404  0771                     __end_of_lcd_cmd:
  3405                           
  3406                           	psect	text7
  3407  0709                     __ptext7:	
  3408 ;; *************** function _en_pulse *****************
  3409 ;; Defined at:
  3410 ;;		line 176 in file "lcd.c"
  3411 ;; Parameters:    Size  Location     Type
  3412 ;;		None
  3413 ;; Auto vars:     Size  Location     Type
  3414 ;;		None
  3415 ;; Return value:  Size  Location     Type
  3416 ;;                  1    wreg      void 
  3417 ;; Registers used:
  3418 ;;		None
  3419 ;; Tracked objects:
  3420 ;;		On entry : 0/0
  3421 ;;		On exit  : 0/0
  3422 ;;		Unchanged: 0/0
  3423 ;; Data sizes:     COMMON   BANK0   BANK1   BANK2   BANK3   BANK4   BANK5   BANK6   BANK7   BANK8   BANK9  BANK10  BANK1
      +1  BANK12
  3424 ;;      Params:         0       0       0       0       0       0       0       0       0       0       0       0       
      +0       0
  3425 ;;      Locals:         0       0       0       0       0       0       0       0       0       0       0       0       
      +0       0
  3426 ;;      Temps:          0       0       0       0       0       0       0       0       0       0       0       0       
      +0       0
  3427 ;;      Totals:         0       0       0       0       0       0       0       0       0       0       0       0       
      +0       0
  3428 ;;Total ram usage:        0 bytes
  3429 ;; Hardware stack levels used: 1
  3430 ;; This function calls:
  3431 ;;		Nothing
  3432 ;; This function is called by:
  3433 ;;		_lcd_putc
  3434 ;;		_lcd_cmd
  3435 ;; This function uses a non-reentrant model
  3436 ;;
  3437                           
  3438                           
  3439                           ;psect for function _en_pulse
  3440  0709                     _en_pulse:
  3441  0709                     l768:	
  3442                           ;incstack = 0
  3443                           ; Regs used in _en_pulse: []
  3444                           
  3445                           
  3446                           ;lcd.c: 177:     LATBbits.LATB5 = 1;
  3447  0709  0020               	movlb	0	; select bank0
  3448  070A  1697               	bsf	23,5	;volatile
  3449                           
  3450                           ;lcd.c: 178:     _delay((unsigned long)((5)*(1000000/4000000.0)));
  3451  070B  0000               	nop
  3452                           
  3453                           ;lcd.c: 179:     LATBbits.LATB5 = 0;
  3454  070C  0020               	movlb	0	; select bank0
  3455  070D  1297               	bcf	23,5	;volatile
  3456                           
  3457                           ;lcd.c: 180:     _delay((unsigned long)((5)*(1000000/4000000.0)));
  3458  070E  0000               	nop
  3459  070F                     l153:
  3460  070F  0008               	return
  3461  0710                     __end_of_en_pulse:
  3462                           
  3463                           	psect	text8
  3464  0721                     __ptext8:	
  3465 ;; *************** function _SYSTEM_Initialize *****************
  3466 ;; Defined at:
  3467 ;;		line 50 in file "mcc_generated_files/mcc.c"
  3468 ;; Parameters:    Size  Location     Type
  3469 ;;		None
  3470 ;; Auto vars:     Size  Location     Type
  3471 ;;		None
  3472 ;; Return value:  Size  Location     Type
  3473 ;;                  1    wreg      void 
  3474 ;; Registers used:
  3475 ;;		wreg, status,2, status,0, pclath, cstack
  3476 ;; Tracked objects:
  3477 ;;		On entry : 0/0
  3478 ;;		On exit  : 0/0
  3479 ;;		Unchanged: 0/0
  3480 ;; Data sizes:     COMMON   BANK0   BANK1   BANK2   BANK3   BANK4   BANK5   BANK6   BANK7   BANK8   BANK9  BANK10  BANK1
      +1  BANK12
  3481 ;;      Params:         0       0       0       0       0       0       0       0       0       0       0       0       
      +0       0
  3482 ;;      Locals:         0       0       0       0       0       0       0       0       0       0       0       0       
      +0       0
  3483 ;;      Temps:          0       0       0       0       0       0       0       0       0       0       0       0       
      +0       0
  3484 ;;      Totals:         0       0       0       0       0       0       0       0       0       0       0       0       
      +0       0
  3485 ;;Total ram usage:        0 bytes
  3486 ;; Hardware stack levels used: 1
  3487 ;; Hardware stack levels required when called: 1
  3488 ;; This function calls:
  3489 ;;		_OSCILLATOR_Initialize
  3490 ;;		_PIN_MANAGER_Initialize
  3491 ;;		_PMD_Initialize
  3492 ;; This function is called by:
  3493 ;;		_main
  3494 ;; This function uses a non-reentrant model
  3495 ;;
  3496                           
  3497                           
  3498                           ;psect for function _SYSTEM_Initialize
  3499  0721                     _SYSTEM_Initialize:
  3500  0721                     l836:	
  3501                           ;incstack = 0
  3502                           ; Regs used in _SYSTEM_Initialize: [wreg+status,2+status,0+pclath+cstack]
  3503                           
  3504                           
  3505                           ;mcc_generated_files/mcc.c: 52:     PMD_Initialize();
  3506  0721  3187  2710  3187   	fcall	_PMD_Initialize
  3507  0724                     l838:
  3508                           
  3509                           ;mcc_generated_files/mcc.c: 53:     PIN_MANAGER_Initialize();
  3510  0724  3187  278D  3187   	fcall	_PIN_MANAGER_Initialize
  3511  0727                     l840:
  3512                           
  3513                           ;mcc_generated_files/mcc.c: 54:     OSCILLATOR_Initialize();
  3514  0727  3187  2718  3187   	fcall	_OSCILLATOR_Initialize
  3515  072A                     l31:
  3516  072A  0008               	return
  3517  072B                     __end_of_SYSTEM_Initialize:
  3518                           
  3519                           	psect	text9
  3520  0710                     __ptext9:	
  3521 ;; *************** function _PMD_Initialize *****************
  3522 ;; Defined at:
  3523 ;;		line 71 in file "mcc_generated_files/mcc.c"
  3524 ;; Parameters:    Size  Location     Type
  3525 ;;		None
  3526 ;; Auto vars:     Size  Location     Type
  3527 ;;		None
  3528 ;; Return value:  Size  Location     Type
  3529 ;;                  1    wreg      void 
  3530 ;; Registers used:
  3531 ;;		status,2
  3532 ;; Tracked objects:
  3533 ;;		On entry : 0/0
  3534 ;;		On exit  : 0/0
  3535 ;;		Unchanged: 0/0
  3536 ;; Data sizes:     COMMON   BANK0   BANK1   BANK2   BANK3   BANK4   BANK5   BANK6   BANK7   BANK8   BANK9  BANK10  BANK1
      +1  BANK12
  3537 ;;      Params:         0       0       0       0       0       0       0       0       0       0       0       0       
      +0       0
  3538 ;;      Locals:         0       0       0       0       0       0       0       0       0       0       0       0       
      +0       0
  3539 ;;      Temps:          0       0       0       0       0       0       0       0       0       0       0       0       
      +0       0
  3540 ;;      Totals:         0       0       0       0       0       0       0       0       0       0       0       0       
      +0       0
  3541 ;;Total ram usage:        0 bytes
  3542 ;; Hardware stack levels used: 1
  3543 ;; This function calls:
  3544 ;;		Nothing
  3545 ;; This function is called by:
  3546 ;;		_SYSTEM_Initialize
  3547 ;; This function uses a non-reentrant model
  3548 ;;
  3549                           
  3550                           
  3551                           ;psect for function _PMD_Initialize
  3552  0710                     _PMD_Initialize:
  3553  0710                     l782:	
  3554                           ;incstack = 0
  3555                           ; Regs used in _PMD_Initialize: [status,2]
  3556                           
  3557                           
  3558                           ;mcc_generated_files/mcc.c: 74:     PMD0 = 0x00;
  3559  0710  002F               	movlb	15	; select bank15
  3560  0711  0196               	clrf	22	;volatile
  3561                           
  3562                           ;mcc_generated_files/mcc.c: 76:     PMD1 = 0x00;
  3563  0712  0197               	clrf	23	;volatile
  3564                           
  3565                           ;mcc_generated_files/mcc.c: 78:     PMD2 = 0x00;
  3566  0713  0198               	clrf	24	;volatile
  3567                           
  3568                           ;mcc_generated_files/mcc.c: 80:     PMD3 = 0x00;
  3569  0714  0199               	clrf	25	;volatile
  3570                           
  3571                           ;mcc_generated_files/mcc.c: 82:     PMD4 = 0x00;
  3572  0715  019A               	clrf	26	;volatile
  3573                           
  3574                           ;mcc_generated_files/mcc.c: 84:     PMD5 = 0x00;
  3575  0716  019B               	clrf	27	;volatile
  3576  0717                     l37:
  3577  0717  0008               	return
  3578  0718                     __end_of_PMD_Initialize:
  3579                           
  3580                           	psect	text10
  3581  078D                     __ptext10:	
  3582 ;; *************** function _PIN_MANAGER_Initialize *****************
  3583 ;; Defined at:
  3584 ;;		line 55 in file "mcc_generated_files/pin_manager.c"
  3585 ;; Parameters:    Size  Location     Type
  3586 ;;		None
  3587 ;; Auto vars:     Size  Location     Type
  3588 ;;		None
  3589 ;; Return value:  Size  Location     Type
  3590 ;;                  1    wreg      void 
  3591 ;; Registers used:
  3592 ;;		wreg, status,2
  3593 ;; Tracked objects:
  3594 ;;		On entry : 0/0
  3595 ;;		On exit  : 0/0
  3596 ;;		Unchanged: 0/0
  3597 ;; Data sizes:     COMMON   BANK0   BANK1   BANK2   BANK3   BANK4   BANK5   BANK6   BANK7   BANK8   BANK9  BANK10  BANK1
      +1  BANK12
  3598 ;;      Params:         0       0       0       0       0       0       0       0       0       0       0       0       
      +0       0
  3599 ;;      Locals:         0       0       0       0       0       0       0       0       0       0       0       0       
      +0       0
  3600 ;;      Temps:          0       0       0       0       0       0       0       0       0       0       0       0       
      +0       0
  3601 ;;      Totals:         0       0       0       0       0       0       0       0       0       0       0       0       
      +0       0
  3602 ;;Total ram usage:        0 bytes
  3603 ;; Hardware stack levels used: 1
  3604 ;; This function calls:
  3605 ;;		Nothing
  3606 ;; This function is called by:
  3607 ;;		_SYSTEM_Initialize
  3608 ;; This function uses a non-reentrant model
  3609 ;;
  3610                           
  3611                           
  3612                           ;psect for function _PIN_MANAGER_Initialize
  3613  078D                     _PIN_MANAGER_Initialize:
  3614  078D                     l784:	
  3615                           ;incstack = 0
  3616                           ; Regs used in _PIN_MANAGER_Initialize: [wreg+status,2]
  3617                           
  3618                           
  3619                           ;mcc_generated_files/pin_manager.c: 60:     LATA = 0x00;
  3620  078D  0020               	movlb	0	; select bank0
  3621  078E  0196               	clrf	22	;volatile
  3622                           
  3623                           ;mcc_generated_files/pin_manager.c: 61:     LATB = 0x00;
  3624  078F  0197               	clrf	23	;volatile
  3625                           
  3626                           ;mcc_generated_files/pin_manager.c: 62:     LATC = 0x00;
  3627  0790  0198               	clrf	24	;volatile
  3628  0791                     l786:
  3629                           
  3630                           ;mcc_generated_files/pin_manager.c: 67:     TRISA = 0xFF;
  3631  0791  30FF               	movlw	255
  3632  0792  0091               	movwf	17	;volatile
  3633  0793                     l788:
  3634                           
  3635                           ;mcc_generated_files/pin_manager.c: 68:     TRISB = 0xFF;
  3636  0793  30FF               	movlw	255
  3637  0794  0092               	movwf	18	;volatile
  3638  0795                     l790:
  3639                           
  3640                           ;mcc_generated_files/pin_manager.c: 69:     TRISC = 0xFF;
  3641  0795  30FF               	movlw	255
  3642  0796  0093               	movwf	19	;volatile
  3643  0797                     l792:
  3644                           
  3645                           ;mcc_generated_files/pin_manager.c: 74:     ANSELC = 0xFF;
  3646  0797  30FF               	movlw	255
  3647  0798  003E               	movlb	30	; select bank30
  3648  0799  00CE               	movwf	78	;volatile
  3649  079A                     l794:
  3650                           
  3651                           ;mcc_generated_files/pin_manager.c: 75:     ANSELB = 0xFF;
  3652  079A  30FF               	movlw	255
  3653  079B  00C3               	movwf	67	;volatile
  3654  079C                     l796:
  3655                           
  3656                           ;mcc_generated_files/pin_manager.c: 76:     ANSELA = 0xFF;
  3657  079C  30FF               	movlw	255
  3658  079D  00B8               	movwf	56	;volatile
  3659                           
  3660                           ;mcc_generated_files/pin_manager.c: 81:     WPUE = 0x00;
  3661  079E  01E5               	clrf	101	;volatile
  3662                           
  3663                           ;mcc_generated_files/pin_manager.c: 82:     WPUB = 0x00;
  3664  079F  01C4               	clrf	68	;volatile
  3665                           
  3666                           ;mcc_generated_files/pin_manager.c: 83:     WPUA = 0x00;
  3667  07A0  01B9               	clrf	57	;volatile
  3668                           
  3669                           ;mcc_generated_files/pin_manager.c: 84:     WPUC = 0x00;
  3670  07A1  01CF               	clrf	79	;volatile
  3671                           
  3672                           ;mcc_generated_files/pin_manager.c: 89:     ODCONA = 0x00;
  3673  07A2  01BA               	clrf	58	;volatile
  3674                           
  3675                           ;mcc_generated_files/pin_manager.c: 90:     ODCONB = 0x00;
  3676  07A3  01C5               	clrf	69	;volatile
  3677                           
  3678                           ;mcc_generated_files/pin_manager.c: 91:     ODCONC = 0x00;
  3679  07A4  01D0               	clrf	80	;volatile
  3680  07A5                     l798:
  3681                           
  3682                           ;mcc_generated_files/pin_manager.c: 96:     SLRCONA = 0xFF;
  3683  07A5  30FF               	movlw	255
  3684  07A6  00BB               	movwf	59	;volatile
  3685  07A7                     l800:
  3686                           
  3687                           ;mcc_generated_files/pin_manager.c: 97:     SLRCONB = 0xFF;
  3688  07A7  30FF               	movlw	255
  3689  07A8  00C6               	movwf	70	;volatile
  3690  07A9                     l802:
  3691                           
  3692                           ;mcc_generated_files/pin_manager.c: 98:     SLRCONC = 0xFF;
  3693  07A9  30FF               	movlw	255
  3694  07AA  00D1               	movwf	81	;volatile
  3695  07AB                     l804:
  3696                           
  3697                           ;mcc_generated_files/pin_manager.c: 103:     INLVLA = 0xFF;
  3698  07AB  30FF               	movlw	255
  3699  07AC  00BC               	movwf	60	;volatile
  3700  07AD                     l806:
  3701                           
  3702                           ;mcc_generated_files/pin_manager.c: 104:     INLVLB = 0xFF;
  3703  07AD  30FF               	movlw	255
  3704  07AE  00C7               	movwf	71	;volatile
  3705  07AF                     l808:
  3706                           
  3707                           ;mcc_generated_files/pin_manager.c: 105:     INLVLC = 0xFF;
  3708  07AF  30FF               	movlw	255
  3709  07B0  00D2               	movwf	82	;volatile
  3710  07B1                     l810:
  3711                           
  3712                           ;mcc_generated_files/pin_manager.c: 106:     INLVLE = 0x08;
  3713  07B1  3008               	movlw	8
  3714  07B2  00E8               	movwf	104	;volatile
  3715  07B3                     l86:
  3716  07B3  0008               	return
  3717  07B4                     __end_of_PIN_MANAGER_Initialize:
  3718                           
  3719                           	psect	text11
  3720  0718                     __ptext11:	
  3721 ;; *************** function _OSCILLATOR_Initialize *****************
  3722 ;; Defined at:
  3723 ;;		line 57 in file "mcc_generated_files/mcc.c"
  3724 ;; Parameters:    Size  Location     Type
  3725 ;;		None
  3726 ;; Auto vars:     Size  Location     Type
  3727 ;;		None
  3728 ;; Return value:  Size  Location     Type
  3729 ;;                  1    wreg      void 
  3730 ;; Registers used:
  3731 ;;		wreg, status,2
  3732 ;; Tracked objects:
  3733 ;;		On entry : 0/0
  3734 ;;		On exit  : 0/0
  3735 ;;		Unchanged: 0/0
  3736 ;; Data sizes:     COMMON   BANK0   BANK1   BANK2   BANK3   BANK4   BANK5   BANK6   BANK7   BANK8   BANK9  BANK10  BANK1
      +1  BANK12
  3737 ;;      Params:         0       0       0       0       0       0       0       0       0       0       0       0       
      +0       0
  3738 ;;      Locals:         0       0       0       0       0       0       0       0       0       0       0       0       
      +0       0
  3739 ;;      Temps:          0       0       0       0       0       0       0       0       0       0       0       0       
      +0       0
  3740 ;;      Totals:         0       0       0       0       0       0       0       0       0       0       0       0       
      +0       0
  3741 ;;Total ram usage:        0 bytes
  3742 ;; Hardware stack levels used: 1
  3743 ;; This function calls:
  3744 ;;		Nothing
  3745 ;; This function is called by:
  3746 ;;		_SYSTEM_Initialize
  3747 ;; This function uses a non-reentrant model
  3748 ;;
  3749                           
  3750                           
  3751                           ;psect for function _OSCILLATOR_Initialize
  3752  0718                     _OSCILLATOR_Initialize:
  3753  0718                     l812:	
  3754                           ;incstack = 0
  3755                           ; Regs used in _OSCILLATOR_Initialize: [wreg+status,2]
  3756                           
  3757                           
  3758                           ;mcc_generated_files/mcc.c: 60:     OSCCON1 = 0x62;
  3759  0718  3062               	movlw	98
  3760  0719  0031               	movlb	17	; select bank17
  3761  071A  008D               	movwf	13	;volatile
  3762  071B                     l814:
  3763                           
  3764                           ;mcc_generated_files/mcc.c: 62:     OSCCON3 = 0x00;
  3765  071B  018F               	clrf	15	;volatile
  3766  071C                     l816:
  3767                           
  3768                           ;mcc_generated_files/mcc.c: 64:     OSCEN = 0x00;
  3769  071C  0191               	clrf	17	;volatile
  3770                           
  3771                           ;mcc_generated_files/mcc.c: 66:     OSCFRQ = 0x02;
  3772  071D  3002               	movlw	2
  3773  071E  0093               	movwf	19	;volatile
  3774  071F                     l818:
  3775                           
  3776                           ;mcc_generated_files/mcc.c: 68:     OSCTUNE = 0x00;
  3777  071F  0192               	clrf	18	;volatile
  3778  0720                     l34:
  3779  0720  0008               	return
  3780  0721                     __end_of_OSCILLATOR_Initialize:
  3781  007E                     btemp	set	126	;btemp
  3782  007E                     wtemp0	set	126
  3783                           
  3784                           	psect	config
  3785                           
  3786                           ;Config register CONFIG1 @ 0x8007
  3787                           ;	External Oscillator mode selection bits
  3788                           ;	FEXTOSC = OFF, Oscillator not enabled
  3789                           ;	Power-up default value for COSC bits
  3790                           ;	RSTOSC = HFINT1, HFINTOSC (1MHz)
  3791                           ;	Clock Out Enable bit
  3792                           ;	CLKOUTEN = OFF, CLKOUT function is disabled; i/o or oscillator function on OSC2
  3793                           ;	Clock Switch Enable bit
  3794                           ;	CSWEN = ON, Writing to NOSC and NDIV is allowed
  3795                           ;	Fail-Safe Clock Monitor Enable bit
  3796                           ;	FCMEN = ON, FSCM timer enabled
  3797  8007                     	org	32775
  3798  8007  3FEC               	dw	16364
  3799                           
  3800                           ;Config register CONFIG2 @ 0x8008
  3801                           ;	Master Clear Enable bit
  3802                           ;	MCLRE = ON, MCLR pin is Master Clear function
  3803                           ;	Power-up Timer Enable bit
  3804                           ;	PWRTE = OFF, PWRT disabled
  3805                           ;	Low-Power BOR enable bit
  3806                           ;	LPBOREN = OFF, ULPBOR disabled
  3807                           ;	Brown-out reset enable bits
  3808                           ;	BOREN = ON, Brown-out Reset Enabled, SBOREN bit is ignored
  3809                           ;	Brown-out Reset Voltage Selection
  3810                           ;	BORV = LO, Brown-out Reset Voltage (VBOR) set to 1.9V on LF, and 2.45V on F Devices
  3811                           ;	Zero-cross detect disable
  3812                           ;	ZCD = OFF, Zero-cross detect circuit is disabled at POR.
  3813                           ;	Peripheral Pin Select one-way control
  3814                           ;	PPS1WAY = ON, The PPSLOCK bit can be cleared and set only once in software
  3815                           ;	Stack Overflow/Underflow Reset Enable bit
  3816                           ;	STVREN = ON, Stack Overflow or Underflow will cause a reset
  3817                           ;	Background Debugger
  3818                           ;	DEBUG = OFF, Background Debugger disabled
  3819  8008                     	org	32776
  3820  8008  3FFF               	dw	16383
  3821                           
  3822                           ;Config register CONFIG3 @ 0x8009
  3823                           ;	WDT Period Select bits
  3824                           ;	WDTCPS = WDTCPS_31, Divider ratio 1:65536; software control of WDTPS
  3825                           ;	WDT operating mode
  3826                           ;	WDTE = OFF, WDT Disabled, SWDTEN is ignored
  3827                           ;	WDT Window Select bits
  3828                           ;	WDTCWS = WDTCWS_7, window always open (100%); software control; keyed access not requi
      +                          red
  3829                           ;	WDT input clock selector
  3830                           ;	WDTCCS = SC, Software Control
  3831  8009                     	org	32777
  3832  8009  3F9F               	dw	16287
  3833                           
  3834                           ;Config register CONFIG4 @ 0x800A
  3835                           ;	UserNVM self-write protection bits
  3836                           ;	WRT = OFF, Write protection off
  3837                           ;	Scanner Enable bit
  3838                           ;	SCANE = available, Scanner module is available for use
  3839                           ;	Low Voltage Programming Enable bit
  3840                           ;	LVP = ON, Low Voltage programming enabled. MCLR/Vpp pin function is MCLR.
  3841  800A                     	org	32778
  3842  800A  3FFF               	dw	16383
  3843                           
  3844                           ;Config register CONFIG5 @ 0x800B
  3845                           ;	UserNVM Program memory code protection bit
  3846                           ;	CP = OFF, Program Memory code protection disabled
  3847                           ;	DataNVM code protection bit
  3848                           ;	CPD = OFF, Data EEPROM code protection disabled
  3849  800B                     	org	32779
  3850  800B  3FFF               	dw	16383

Data Sizes:
    Strings     18
    Constant    0
    Data        0
    BSS         0
    Persistent  32
    Stack       0

Auto Spaces:
    Space          Size  Autos    Used
    COMMON           14      5       5
    BANK0            80      0       0
    BANK1            80      0       0
    BANK2            80      0       0
    BANK3            80      0       0
    BANK4            80      0       0
    BANK5            80      0       0
    BANK6            80      0       0
    BANK7            80      0       0
    BANK8            80      0       0
    BANK9            80      0       0
    BANK10           80      0       0
    BANK11           80      0       0
    BANK12           48      0       0

Pointer List with Targets:

    lcd_print@data	PTR unsigned char  size(2) Largest target is 18
		 -> STR_1(CODE[18]), 


Critical Paths under _main in COMMON

    _main->_lcd_print
    _lcd_print->_lcd_putc
    _lcd_init->_lcd_cmd
    _lcd_clear->_lcd_cmd
    _lcd_home->_lcd_cmd

Critical Paths under _main in BANK0

    None.

Critical Paths under _main in BANK1

    None.

Critical Paths under _main in BANK2

    None.

Critical Paths under _main in BANK3

    None.

Critical Paths under _main in BANK4

    None.

Critical Paths under _main in BANK5

    None.

Critical Paths under _main in BANK6

    None.

Critical Paths under _main in BANK7

    None.

Critical Paths under _main in BANK8

    None.

Critical Paths under _main in BANK9

    None.

Critical Paths under _main in BANK10

    None.

Critical Paths under _main in BANK11

    None.

Critical Paths under _main in BANK12

    None.

Call Graph Tables:

 ---------------------------------------------------------------------------------
 (Depth) Function   	        Calls       Base Space   Used Autos Params    Refs
 ---------------------------------------------------------------------------------
 (0) _main                                                 0     0      0     241
                  _SYSTEM_Initialize
                           _lcd_home
                           _lcd_init
                          _lcd_print
 ---------------------------------------------------------------------------------
 (1) _lcd_print                                            3     1      2     151
                                              2 COMMON     3     1      2
                           _lcd_putc
 ---------------------------------------------------------------------------------
 (2) _lcd_putc                                             2     2      0      30
                                              0 COMMON     2     2      0
                           _en_pulse
 ---------------------------------------------------------------------------------
 (1) _lcd_init                                             1     1      0      60
                                              2 COMMON     1     1      0
                          _lcd_clear
                            _lcd_cmd
 ---------------------------------------------------------------------------------
 (2) _lcd_clear                                            0     0      0      30
                            _lcd_cmd
 ---------------------------------------------------------------------------------
 (1) _lcd_home                                             0     0      0      30
                            _lcd_cmd
 ---------------------------------------------------------------------------------
 (2) _lcd_cmd                                              2     2      0      30
                                              0 COMMON     2     2      0
                           _en_pulse
 ---------------------------------------------------------------------------------
 (3) _en_pulse                                             0     0      0       0
 ---------------------------------------------------------------------------------
 (1) _SYSTEM_Initialize                                    0     0      0       0
              _OSCILLATOR_Initialize
             _PIN_MANAGER_Initialize
                     _PMD_Initialize
 ---------------------------------------------------------------------------------
 (2) _PMD_Initialize                                       0     0      0       0
 ---------------------------------------------------------------------------------
 (2) _PIN_MANAGER_Initialize                               0     0      0       0
 ---------------------------------------------------------------------------------
 (2) _OSCILLATOR_Initialize                                0     0      0       0
 ---------------------------------------------------------------------------------
 Estimated maximum stack depth 3
 ---------------------------------------------------------------------------------

 Call Graph Graphs:

 _main (ROOT)
   _SYSTEM_Initialize
     _OSCILLATOR_Initialize
     _PIN_MANAGER_Initialize
     _PMD_Initialize
   _lcd_home
     _lcd_cmd
       _en_pulse
   _lcd_init
     _lcd_clear
       _lcd_cmd
     _lcd_cmd
   _lcd_print
     _lcd_putc
       _en_pulse

 Address spaces:
Name               Size   Autos  Total    Cost      Usage
BIGRAM             3F0      0       0       0        0.0%
EEDATA             100      0       0       0        0.0%
NULL                 0      0       0       0        0.0%
CODE                 0      0       0       0        0.0%
BITCOMMON            E      0       0       1        0.0%
BITSFR0              0      0       0       1        0.0%
SFR0                 0      0       0       1        0.0%
COMMON               E      5       5       2       35.7%
BITSFR1              0      0       0       2        0.0%
SFR1                 0      0       0       2        0.0%
BITSFR2              0      0       0       3        0.0%
SFR2                 0      0       0       3        0.0%
STACK                0      0       0       3        0.0%
BITBANK0            50      0       0       4        0.0%
BITSFR3              0      0       0       4        0.0%
SFR3                 0      0       0       4        0.0%
BANK0               50      0       0       5        0.0%
BITSFR4              0      0       0       5        0.0%
SFR4                 0      0       0       5        0.0%
BITBANK1            50      0       0       6        0.0%
BITSFR5              0      0       0       6        0.0%
SFR5                 0      0       0       6        0.0%
BANK1               50      0       0       7        0.0%
BITSFR6              0      0       0       7        0.0%
SFR6                 0      0       0       7        0.0%
BITBANK2            50      0       0       8        0.0%
BITSFR7              0      0       0       8        0.0%
SFR7                 0      0       0       8        0.0%
BANK2               50      0       0       9        0.0%
BITSFR8              0      0       0       9        0.0%
SFR8                 0      0       0       9        0.0%
BITBANK3            50      0       0      10        0.0%
BITSFR9              0      0       0      10        0.0%
SFR9                 0      0       0      10        0.0%
BANK3               50      0       0      11        0.0%
BITSFR10             0      0       0      11        0.0%
SFR10                0      0       0      11        0.0%
BITBANK4            50      0       0      12        0.0%
BITSFR11             0      0       0      12        0.0%
SFR11                0      0       0      12        0.0%
BANK4               50      0       0      13        0.0%
BITSFR12             0      0       0      13        0.0%
SFR12                0      0       0      13        0.0%
BITBANK5            50      0       0      14        0.0%
BITSFR13             0      0       0      14        0.0%
SFR13                0      0       0      14        0.0%
BANK5               50      0       0      15        0.0%
BITSFR14             0      0       0      15        0.0%
SFR14                0      0       0      15        0.0%
BITBANK6            50      0       0      16        0.0%
BITSFR15             0      0       0      16        0.0%
SFR15                0      0       0      16        0.0%
BANK6               50      0       0      17        0.0%
BITSFR16             0      0       0      17        0.0%
SFR16                0      0       0      17        0.0%
BITBANK7            50      0       0      18        0.0%
BITSFR17             0      0       0      18        0.0%
SFR17                0      0       0      18        0.0%
BANK7               50      0       0      19        0.0%
BITSFR18             0      0       0      19        0.0%
SFR18                0      0       0      19        0.0%
BITSFR19             0      0       0      20        0.0%
SFR19                0      0       0      20        0.0%
ABS                  0      0       0      20        0.0%
BITBANK8            50      0       0      21        0.0%
BITSFR20             0      0       0      21        0.0%
SFR20                0      0       0      21        0.0%
BANK8               50      0       0      22        0.0%
BITSFR21             0      0       0      22        0.0%
SFR21                0      0       0      22        0.0%
BITBANK9            50      0       0      23        0.0%
BITSFR22             0      0       0      23        0.0%
SFR22                0      0       0      23        0.0%
BANK9               50      0       0      24        0.0%
BITSFR23             0      0       0      24        0.0%
SFR23                0      0       0      24        0.0%
BITBANK10           50      0       0      25        0.0%
BITSFR24             0      0       0      25        0.0%
SFR24                0      0       0      25        0.0%
BANK10              50      0       0      26        0.0%
BITSFR25             0      0       0      26        0.0%
SFR25                0      0       0      26        0.0%
BITBANK11           50      0       0      27        0.0%
BITSFR26             0      0       0      27        0.0%
SFR26                0      0       0      27        0.0%
BANK11              50      0       0      28        0.0%
BITSFR27             0      0       0      28        0.0%
SFR27                0      0       0      28        0.0%
BITBANK12           30      0       0      29        0.0%
BITSFR28             0      0       0      29        0.0%
SFR28                0      0       0      29        0.0%
BANK12              30      0       0      30        0.0%
BITSFR29             0      0       0      30        0.0%
SFR29                0      0       0      30        0.0%
BITSFR30             0      0       0      31        0.0%
SFR30                0      0       0      31        0.0%
DATA                 0      0       0      31        0.0%
BITSFR31             0      0       0      32        0.0%
SFR31                0      0       0      32        0.0%


Microchip Technology PIC Macro Assembler V2.32 build 20210201212658 
Symbol Table                                                                                   Wed Dec 29 16:45:31 2021

                    lcd_cmd@data 0071                               l31 072A                               l34 0720  
                             l37 0717                               l86 07B3                               u15 0762  
                             u25 077F                               u60 0754                               u61 0753  
                             u77 078A                               u87 07BE                               u97 07C8  
                            l102 073B                              l103 073B                              l130 0708  
                            l124 07FC                              l133 0703                              l150 0770  
                            l127 078C                              l153 070F                              l139 0754  
                            l800 07A7                              l810 07B1                              l802 07A9  
                            l812 0718                              l804 07AB                              l820 0704  
                            l814 071B                              l806 07AD                              l830 077B  
                            l822 0772                              l816 071C                              l808 07AF  
                            l840 0727                              l832 0786                              l824 0774  
                            l818 071F                              l770 0756                              l850 07BB  
                            l842 07B4                              l834 0789                              l826 0775  
                            l930 073E                              l836 0721                              l780 076C  
                            l772 0758                              l860 07D2                              l852 07C3  
                            l844 07B7                              l828 0778                              l932 073F  
                            l940 0734                              l790 0795                              l782 0710  
                            l838 0724                              l774 075B                              l870 07E4  
                            l862 07D6                              l854 07C7                              l846 07B8  
                            l934 0747                              l792 0797                              l784 078D  
                            l768 0709                              l776 075E                              l880 07F5  
                            l872 07E7                              l864 07D9                              l856 07CB  
                            l848 07B9                              l936 074B                              l794 079A  
                            l786 0791                              l778 0769                              l882 07F9  
                            l874 07EA                              l866 07DD                              l858 07CF  
                            l938 072B                              l796 079C                              l788 0793  
                            l884 06FF                              l876 07EE                              l868 07E0  
                            l798 07A5                              l878 07F2                              u107 07D0  
                            u117 07D7                              u127 07DE                              u137 07E5  
                            u147 07EB                              u157 07F3                              u167 07FA  
                            u177 076D          __size_of_PMD_Initialize 0008                              wreg 0009  
                           STR_1 0800                             _LATA 0016                             _LATB 0017  
                           _LATC 0018                             _PMD0 0796                             _PMD1 0797  
                           _PMD2 0798                             _PMD3 0799                             _PMD4 079A  
                           _PMD5 079B                             _WPUA 0F39                             _WPUB 0F44  
                           _WPUC 0F4F                             _WPUE 0F65                             _main 072B  
                           fsr0h 0005                             indf0 0000                             fsr0l 0004  
                           btemp 007E                             start 0002   __size_of_OSCILLATOR_Initialize 0009  
  __end_of_OSCILLATOR_Initialize 0721                            ?_main 0070                            _OSCEN 0891  
                          _TRISA 0011                            _TRISB 0012                            _TRISC 0013  
                __end_of_lcd_cmd 0771                            status 0003                            wtemp0 007E  
                __initialization 07FD                     __end_of_main 073E                           ??_main 0075  
                         _ANSELA 0F38                           _ANSELB 0F43                           _ANSELC 0F4E  
                         _ODCONA 0F3A                           _ODCONB 0F45                           _ODCONC 0F50  
                         _INLVLA 0F3C                           _INLVLB 0F47                           _INLVLC 0F52  
                         _INLVLE 0F68                           _OSCFRQ 0893                    lcd_print@data 0072  
               __end_of_lcd_home 0704                 __end_of_lcd_init 07FD                 __end_of_en_pulse 0710  
               __end_of_lcd_putc 078D                        ??_lcd_cmd 0070                   _PMD_Initialize 0710  
              _SYSTEM_Initialize 0721          __end_of__initialization 07FD               ?_SYSTEM_Initialize 0070  
                 __pcstackCOMMON 0070              ??_SYSTEM_Initialize 0070           __end_of_PMD_Initialize 0718  
             __size_of_lcd_clear 0005               __size_of_lcd_print 0017        __end_of_SYSTEM_Initialize 072B  
                     __pmaintext 072B                  ?_PMD_Initialize 0070                          _OSCCON1 088D  
                        _OSCCON3 088F                          _OSCTUNE 0892                          _SLRCONA 0F3B  
                        _SLRCONB 0F46                          _SLRCONC 0F51                        ?_lcd_home 0070  
                      ?_lcd_init 0070                        ?_en_pulse 0070                        ?_lcd_putc 0070  
              __end_of_lcd_clear 0709                __end_of_lcd_print 0755                          __ptext1 073E  
                        __ptext2 0771                          __ptext3 07B4                          __ptext4 0704  
                        __ptext5 06FF                          __ptext6 0755                          __ptext7 0709  
                        __ptext8 0721                          __ptext9 0710                          _lcd_cmd 0755  
          _OSCILLATOR_Initialize 0718         ??_PIN_MANAGER_Initialize 0070       __size_of_SYSTEM_Initialize 000A  
                     ??_lcd_home 0072                       ??_lcd_init 0072                       ??_en_pulse 0070  
                     ??_lcd_putc 0070             end_of_initialization 07FD                        _TRISBbits 0012  
         ?_OSCILLATOR_Initialize 0070              start_initialization 07FD  __size_of_PIN_MANAGER_Initialize 0027  
               ??_PMD_Initialize 0070                        ___latbits 0002                __size_of_lcd_home 0005  
              __size_of_lcd_init 0049                __size_of_en_pulse 0007                __size_of_lcd_putc 001C  
         _PIN_MANAGER_Initialize 078D                        _lcd_clear 0704                        _lcd_print 073E  
                       ?_lcd_cmd 0070                         _LATBbits 0017                       ?_lcd_clear 0070  
                     ?_lcd_print 0072                        lcd_putc@c 0071          ??_OSCILLATOR_Initialize 0070  
               __size_of_lcd_cmd 001C                         __ptext10 078D                         __ptext11 0718  
                       _lcd_home 06FF                         _lcd_init 07B4                         _en_pulse 0709  
                       _lcd_putc 0771                    __size_of_main 0013                      ??_lcd_clear 0072  
                    ??_lcd_print 0074          ?_PIN_MANAGER_Initialize 0070                    __pstringtext1 0800  
                  __pstringtext2 0000   __end_of_PIN_MANAGER_Initialize 07B4  
